(lp1
S'the person chopped the stalk of a leek.  .'
p2
aS'the person demonstrates how to properly cut a leek.  .'
p3
aS'the person sliced a leek and then put it on a plate.  .'
p4
aS'the person entered the kitchen and diced a leek.  .'
p5
aS'the person washes and chops leeks.  .'
p6
aS'the person diced a leek.  .'
p7
aS'the person diced a leek.  .'
p8
aS'young the person went into the kitchen and finely chopped a large vegetable.  .'
p9
aS'the person walked into the kitchen and chopped a vegetable.  .'
p10
aS'the person prepared a leek by washing and slicing it into small pieces.  .'
p11
aS'the person chopped a leek.  .'
p12
aS'the person sliced a large vegetable.  .'
p13
aS'the person cleaned and sliced leek.  .'
p14
aS'the person chopped a leek.  .'
p15
aS'the person chopped up a leek into small pieces.  .'
p16
aS'the person sliced leeks.  .'
p17
aS'the person prepared a leek and placed it on the plate.  .'
p18
aS'the person entered the kitchen and chopped a leek.  .'
p19
aS'the person sliced a leek.  .'
p20
aS'the person took a leek and diced it into small pieces on a cutting board.  .'
p21
aS'the person entered the kitchen and minced a leek.  .'
p22
aS'the person cleaned and chopped up the leek into very small pieces.  .'
p23
aS'the person sliced a piece of bread from a loaf.  .'
p24
aS'the person cut two slices of bread from a loaf of bread.  .'
p25
aS'the person came into the kitchen, got some bread and cut two slices.  .'
p26
aS'the person sliced two pieces of bread.  .'
p27
aS'the person sliced two pieces of bread from a loaf.  .'
p28
aS'the person sliced a loaf of bread.  .'
p29
aS'the person went into the kitchen and sliced some bread.  .'
p30
aS'the person sliced bread.  .'
p31
aS'the person came into kitchen,took bread,cut it to two slices and put it on plate.  .'
p32
aS'the person sliced two slices of bread off of a loaf of bread.  .'
p33
aS'the person entered the kitchen and cut two pieces of bread.  .'
p34
aS'the person sliced off two pieces of bread from a loaf.  .'
p35
aS'the video shows how to cut slices of bread off a loaf.  .'
p36
aS'the person sliced bread.  .'
p37
aS'the person sliced bread.  .'
p38
aS'the person sliced a piece of bread and put it on a plate.  .'
p39
aS'the person sliced two pieces of bread from a loaf.  .'
p40
aS'the person sliced two pieces of bread.  .'
p41
aS'the person cut two slices from a loaf of bread.  .'
p42
aS'the person entered the kitchen and sliced two slices from a loaf of bread.  .'
p43
aS'the person prepared sliced cucumbers.  .'
p44
aS'the person sliced a cucumber and set it on a plate.  .'
p45
aS'the person entered into the kitchen, cut the washed cucumber into the pieces and kept them in the plate.  .'
p46
aS'the person washed and sliced a cucumber.  .'
p47
aS'the person sliced a cucumber.  .'
p48
aS'the person sliced a cucumber and arranged it on a plate.  .'
p49
aS'the person cut a cucumber.  .'
p50
aS'the person cut up a cucumber into large slices.  .'
p51
aS'the person rinsed and sliced a cucumber.  .'
p52
aS'the person cut a cucumber into slices.  .'
p53
aS'the person sliced up a cumber and placed it on a plate.  .'
p54
aS'the person entered the kitchen and sliced a cucumber.  .'
p55
aS'the person sliced a cucumber.  .'
p56
aS'the person cut the cucumber in the kitchen.  .'
p57
aS'the person cut up a cucumber.  .'
p58
aS'the person entered the kitchen and sliced a cucumber.  .'
p59
aS'the person walked into the kitchen and sliced a cucumber.  .'
p60
aS'the person sliced a cucumber.  .'
p61
aS'the person entered the kitchen and sliced a cucumber into round slices.  .'
p62
aS'the person washed, wiped and sliced a cucumber and arranged on a plate.  .'
p63
aS'the person came in kitchen and took a carrot washed it and divided it in small pieces.  .'
p64
aS'the person chopped a carrot.  .'
p65
aS'the person sliced a carrot into pieces.  .'
p66
aS'the person entered the kitchen and cut a carrot into small pieces.  .'
p67
aS'the person sliced a carrot.  .'
p68
aS'the person got a carrot from the fridge, washed it, and cut it up.  .'
p69
aS'the person sliced carrots.  .'
p70
aS'the person sliced a carrot into medallions.  .'
p71
aS'the person sliced a carrot on a cutting board.  .'
p72
aS'the person chopped a carrot on a cutting board.  .'
p73
aS'the person sliced the carrot into small pieces.  .'
p74
aS'the person cut up a carrot into thin discs.  .'
p75
aS'the person washed and cut a carrot.  .'
p76
aS'the person carefully sliced a carrot on a cutting board using a large knife.  .'
p77
aS'the person put a clean carrot on a cutting board and cut it into small pieces with a knife.  .'
p78
aS'the person cut the carrot into many slices.  .'
p79
aS'the person cut a carrot into rounds.  .'
p80
aS'the person trimmed and cut up a carrot into neat slices.  .'
p81
aS'the person cut a carrot into slices on a cutting board.  .'
p82
aS'the person thinly sliced a carrot.  .'
p83
aS'the person cut the pineapple into pieces and transferred to a plate.  .'
p84
aS'the person peeled the pineapple and cut into pieces.  .'
p85
aS'the person cut a pineapple.  .'
p86
aS'the person sliced a pineapple.  .'
p87
aS'the person cut the pineapple into pieces and transferred to a plate.  .'
p88
aS'the person peeled and diced a pineapple.  .'
p89
aS'the person cut a pineapple into chunks.  .'
p90
aS'the person entered the kitchen and proceeded to prepare a fresh pineapple for consumption by removing the rind and slicing.  .'
p91
aS'the person cut a pineapple into small pieces and put them on a plate.  .'
p92
aS'the person prepared a plate of sliced pineapple.  .'
p93
aS'the person prepared a pineapple that he ate.  .'
p94
aS'the person entered a kitchen, retrieved a pineapple from the refrigerator and sliced and diced it into small pieces, sampled it , and left the kitchen.  .'
p95
aS'the person peeled, cored, and cubed a fresh pineapple.  .'
p96
aS'the person peeled and cut up a pineapple.  .'
p97
aS'the person sliced a pineapple into many pieces.  .'
p98
aS'the person prepared a fresh pineapple for eating raw.  .'
p99
aS'the person prepared a pineapple in the kitchen and then left with it on a plate.  .'
p100
aS'the person skinned and chopped a pineapple.  .'
p101
aS'the video showed how to slice and quarter a whole pineapple.  .'
p102
aS'the person entered the kitchen and cut a pineapple into chunks.  .'
p103
aS'the person cooked broccoli.  .'
p104
aS'the person demonstrated how to slice, boil and stir fry broccoli.  .'
p105
aS'the person fried chopped broccoli with salt and pepper.  .'
p106
aS'the person was preparing a dish with broccoli.  .'
p107
aS'the person prepared and cooked broccoli.  .'
p108
aS'the person prepared and cooked a stalk of broccoli.  .'
p109
aS'the person fried chopped broccoli with salt and pepper.  .'
p110
aS'the person lightly steamed and stir-fried some broccoli and put it on a plate.  .'
p111
aS'the person cut the broccoli into bite-sized pieces, boiled it, and then finished cooking it by stir frying in hot oil.  .'
p112
aS'the person demonstrated how to chop and cook broccoli.  .'
p113
aS'the person fried broccoli with salt and pepper.  .'
p114
aS'the person prepared a plate of cooked broccoli.  .'
p115
aS'the person prepared broccoli.  .'
p116
aS'this was a video showing how to prepare a certain broccoli dish and what is needed to do so.  .'
p117
aS'the person prepared sauteed broccoli with salt and wine and plated it.  .'
p118
aS'the person blanched and sauteed broccoli.  .'
p119
aS'the person entered the kitchen and prepared some broccoli.  .'
p120
aS'the person blanched and sauteed a broccoli crown.  .'
p121
aS'the person cooked some broccoli.  .'
p122
aS'the person entered a kitchen, chopped, cooked, and seasoned some broccoli.  .'
p123
aS'the person demonstrated how to cut a pepper.  .'
p124
aS'the person rinsed a pepper, removed the seeds, and sliced it into thin strips for a meal.  .'
p125
aS'a yellow pepper is prepared in slices and eaten raw, excluding ribs and seeds.  .'
p126
aS'the person sliced a pepper.  .'
p127
aS'the person cut a bell pepper and set it on a plate.  .'
p128
aS'the person cut, gutted, and sliced a yellow pepper.  .'
p129
aS'the person washed and sliced a pepper.  .'
p130
aS'the person sliced a yellow pepper.  .'
p131
aS'the person took a pepper and cut it into several pieces.  .'
p132
aS'the video is about cutting a bell pepper into long, thin pieces.  .'
p133
aS'the person sliced a pepper and put it back in a cabinet.  .'
p134
aS'the person entered the kitchen and sliced a pepper.  .'
p135
aS'the person sliced a pepper into strips.  .'
p136
aS'the person cut a yellow pepper into strips.  .'
p137
aS'the person prepared a pepper for snacking or a meal.  .'
p138
aS'the person sliced a pepper and put the pieces in a cabinet.  .'
p139
aS'the person washed and cut a pepper.  .'
p140
aS'the person cut an orange pepper into slices.  .'
p141
aS'the person cut a pepper into slices.  .'
p142
aS'the person entered the kitchen and sliced a pepper into slices.  .'
p143
aS'the person prepared a pepper and placed it in the cabinet.  .'
p144
aS'the person entered the kitchen and cooked an onion.  .'
p145
aS'the person cut up and fried an onion in butter.  .'
p146
aS'the person chopped and fried an onion.  .'
p147
aS'the person sauteed an onion.  .'
p148
aS'the person cooked onions.  .'
p149
aS'the person makes grilled onions, with salt and butter.  .'
p150
aS'the person walked into the kitchen and diced, cooked, and plated an onion.  .'
p151
aS'the person walked into the kitchen, cleaned and cut an onion, then sauteed it on the stove.  .'
p152
aS'the person cooked onions with a bit of butter.  .'
p153
aS'the person peeled, chopped, and cooked an onion.  .'
p154
aS'the person prepared sauteed onions and placed them on a dish.  .'
p155
aS'the person sliced and pan fried an onion.  .'
p156
aS'the person prepared fried chopped onions.  .'
p157
aS'the person chopped and sauteed onions.  .'
p158
aS'the person prepared and diced an onion, rinsed it with water, and cooked it in a pan with melted butter and spices.  .'
p159
aS'the person cut and sauteed an onion.  .'
p160
aS'the video shows how to chop onions finely and fry them.  .'
p161
aS'the person entered the kitchen and sauteed chopped onions in butter.  .'
p162
aS'the person diced and cooked the onions.  .'
p163
aS'the person working in an unfamiliar kitchen peeled and chopped an onion before cooking it in butter on the stovetop.  .'
p164
aS'the person sliced a red sweet pepper into rings.  .'
p165
aS'the person walked into his kitchen, and prepared a healthy snack.  .'
p166
aS'the person sliced a red bell pepper.  .'
p167
aS'the person washed a red pepper and sliced it and then put it on a plate.  .'
p168
aS'the person sliced a pepper and set it on a plate.  .'
p169
aS'the person walked into the kitchen and sliced a red pepper.  .'
p170
aS'the person entered the kitchen and sliced a red bell pepper.  .'
p171
aS'the person sliced a bell pepper.  .'
p172
aS'the person cut a pepper into slices.  .'
p173
aS'the person used a knife and cutting board to cut a red bell pepper into slices.  .'
p174
aS'the person cut a red pepper into slices.  .'
p175
aS'the person cleaned and sliced a bell pepper.  .'
p176
aS'the person entered the kitchen and sliced a pepper.  .'
p177
aS'the person washed and sliced a red pepper.  .'
p178
aS'the person washed and sliced a bell pepper and arranged them onto a plate.  .'
p179
aS'the person prepared a pepper, and placed it on a plate.  .'
p180
aS'the person washed a sliced a pepper.  .'
p181
aS'the person cleaned and then sliced a red bell pepper.  .'
p182
aS'how to cut a bell pepper.  .'
p183
aS'the video shows how to cut up a bell pepper into thin discs.  .'
p184
aS'the person entered the kitchen and cooked cauliflower.  .'
p185
aS'the person cleaned and cooked cauliflower.  .'
p186
aS'the person cooked cauliflower.  .'
p187
aS'the person walked in a kitchen, and prepared cauliflower by boiling it.  .'
p188
aS'the person came into the kitchen to cook cauliflower.  .'
p189
aS'the person prepares and cooks cauliflower.  .'
p190
aS'the video shows how to parboil cauliflower.  .'
p191
aS'the person cooked cauliflower and placed it on a plate.  .'
p192
aS'the person prepared boiled cauliflower.  .'
p193
aS'the person cut up and boiled a cauliflower.  .'
p194
aS'the person cut and boiled a head of cauliflower.  .'
p195
aS'the person cut and boiled cauliflower.  .'
p196
aS'the person cooked cauliflower on a stove.  .'
p197
aS'the person cooked cauliflower.  .'
p198
aS'the person came into the kitchen and cooked some cauliflower.  .'
p199
aS'the person prepared and boiled cauliflower.  .'
p200
aS'the person prepared a plate of cooked cauliflower.  .'
p201
aS'the person entered the kitchen and cooked cauliflower.  .'
p202
aS'the person boiled some cauliflower.  .'
p203
aS'the person cooked cauliflower.  .'
p204
aS'the person cut up a cucumber.  .'
p205
aS'1. in the video,  the person cut a cucumber and wanted to prepare something to eat with him.  .'
p206
aS'the person walked into the kitchen and peeled a cucumber.  .'
p207
aS'the person sliced a cucumber into small pieces.  .'
p208
aS'the person peeled and diced a zucchini.  .'
p209
aS'the person peeled and diced a cucumber.  .'
p210
aS'the person picked a cucumber, washed it, peeled off the skin and cut it in to small pieces.  .'
p211
aS'the person peeled, sliced and cubed a cucumber then placed it into a bowl.  .'
p212
aS'the person peeled and diced a zucchini in the kitchen.  .'
p213
aS'the person peeled and cut a cucumber into cubes.  .'
p214
aS'the person entered the kitchen and chopped a cucumber.  .'
p215
aS'the person went into the kitchen and chopped up a cucumber.  .'
p216
aS'the person peels and coarsely chops a cucumber.  .'
p217
aS'the person took a cucumber, peeled and diced it.  .'
p218
aS'the person diced a cucumber into half inch thick pieces.  .'
p219
aS'the person cut the cucumber into pieces.  .'
p220
aS'the person was cutting a cucumber in his kitchen.  .'
p221
aS'the person prepared a cucumber by cleaning, peeling, and slicking it.  .'
p222
aS'the person diced a cucumber.  .'
p223
aS'the person peeled and then chopped up a cucumber, putting the pieces in a bowl.  .'
p224
aS'the person made tea.  .'
p225
aS'the person brewed a pot of tea with an electric kettle and a tea infuser.  .'
p226
aS'the person boiled a pot of tea.  .'
p227
aS'the person prepared a liquid substance in a clean kitchen.  .'
p228
aS'the person prepared tea.  .'
p229
aS'the person made tea.  .'
p230
aS'the person made tea.  .'
p231
aS'the person made tea.  .'
p232
aS'the person prepared a pot of tea.  .'
p233
aS'the person made a pot of tea with water from an electric kettle.  .'
p234
aS'the person prepared a pot of tea.  .'
p235
aS'the person brewed some tea.  .'
p236
aS'the person brewed tea.  .'
p237
aS'the person entered the kitchen and made some tea.  .'
p238
aS'the person prepared a pot of tea.  .'
p239
aS'the person made tea very efficiently.  .'
p240
aS'the person entered the kitchen and brewed a pot of tea.  .'
p241
aS'the person used tea powder and hot water and prepared tea.  .'
p242
aS'the person brewed a pot of hot tea.  .'
p243
aS'the person walked into the kitchen and made a pot of tea.  .'
p244
aS'the person prepared a plate of sliced cucumber.  .'
p245
aS'the person prepared a dish of sliced cucumbers.  .'
p246
aS'the person peeled and sliced a cucumber.  .'
p247
aS'the person chopped the cucumber into pieces and placed on a bowl.  .'
p248
aS'the person peeled and diced a cucumber.  .'
p249
aS'the person peeled and chopped a cucumber.  .'
p250
aS'the person peeled and sliced a cucumber.  .'
p251
aS'the person entered the kitchen and prepared a cucumber.  .'
p252
aS'the person peeled and sliced a cucumber.  .'
p253
aS'the person entered the kitchen and chopped a cucumber.  .'
p254
aS'the person cut up a cucumber.  .'
p255
aS'the person cut up a cucumber in the kitchen and put the pieces on a plate.  .'
p256
aS'the person prepared slice and peeled cucumber and plated it.  .'
p257
aS'the person peeled and cut a cucumber into small pieces.  .'
p258
aS'the person walks into a kitchen, takes a cucumber from the refrigerator, washes, peels and then slices it.  .'
p259
aS'the person sliced a cucumber into many pieces.  .'
p260
aS'the person chopped the cucumber into pieces and placed on a bowl.  .'
p261
aS'the person washed, peeled and cut a cucumber into small pieces.  .'
p262
aS'the person used a knife, peeler, and cutting board to cut a cucumber into slices which the person later placed into a bowl.  .'
p263
aS'the person cut a cucumber.  .'
p264
aS'the person peeled, cut, sliced, and seasoned a cucumber half.  .'
p265
aS'the person entered the kitchen and sliced a cucumber.  .'
p266
aS'the person prepared a cucumber by slicing and seasoning them.  .'
p267
aS'the person prepared a cucumber by peeling, slicing, and seasoning it.  .'
p268
aS'the person cut a vegetable and put them on a plate with seasoning.  .'
p269
aS'the person was demonstrating how to cut and season a cucumber.  .'
p270
aS'the person peeled and sliced half of a cucumber.  .'
p271
aS'the person used a hand-juicer to juice a lime.  .'
p272
aS'the person entered the kitchen and prepared a plate of diced cucumber with a sprinkle of a spice.  .'
p273
aS'the person cut up a cucumber.  .'
p274
aS'the person cut up zucchini and sprinkled spice on top.  .'
p275
aS'the person prepared a plate of cucumber slices.  .'
p276
aS'the person cut a cucumber into thin slices.  .'
p277
aS'the person choped up a cucumber.  .'
p278
aS'the person chopped up a cucumber and seasoned it.  .'
p279
aS'the person cut up a cucumber.  .'
p280
aS'the person peeled and chopped half of a cucumber and placed it on a plate.  .'
p281
aS'the person peeled and sliced a cucumber.  .'
p282
aS'the person prepared and seasoned a cucumber.  .'
p283
aS'the person prepared a plate of sliced cucumber.  .'
p284
aS'the person peeled and sliced a cucumber.  .'
p285
aS'the person made steamed cauliflower with a butter sauce.  .'
p286
aS'the person prepared a meal using cauliflower.  .'
p287
aS'the person came into the kitchen and cooked some cauliflower with a sauce.  .'
p288
aS'the person made some cauliflower with sauce.  .'
p289
aS'the person prepared cauliflower and a cream based sauce.  .'
p290
aS'the person prepared a meal out of cauliflower, and some sort of sauce he made.  .'
p291
aS'the person cooks cauliflower and rice or broth.  .'
p292
aS'the person cooked cauliflower with a cream sauce.  .'
p293
aS'the person prepares cauliflower with white sauce dish.  .'
p294
aS'the person prepared cauliflower with sauce.  .'
p295
aS'the person entered the kitchen and cooked cauliflower with a white sauce.  .'
p296
aS'the person entered the kitchen and cooked some cauliflower with a sauce.  .'
p297
aS'the person cooked cauliflower and a bechamel sauce.  .'
p298
aS'boiled cauliflower dish with gravy.  .'
p299
aS'the person came and boiled cauliflower and made mixer,at last added them into one plate.  .'
p300
aS'the person made baked cauliflower puree.  .'
p301
aS'the person cooked the cauliflower and white sauce.  .'
p302
aS'the person made boiled cauliflower with a creamy sauce poured on top.  .'
p303
aS'the person prepared a plate of cauliflower and sauce.  .'
p304
aS'the person boiled cauliflower and topped it with a white sauce.  .'
p305
aS'the person cut a cayenne pepper into slices.  .'
p306
aS'the person entered the kitchen and diced a red pepper.  .'
p307
aS'the person sliced a chili pepper..  .'
p308
aS'the person cut a red pepper into small pieces and put them on a plate.  .'
p309
aS'the video is about chopping up a red chilli into fine pieces.  .'
p310
aS'the person sliced up a pepper.  .'
p311
aS'a entered the kitchen and cut a chili pepper into small pieces.  .'
p312
aS'the person entered into the kitchen, cut red chili into pieces with knife and arranged them in plate.  .'
p313
aS'the person cut a red pepper into small pieces and puts them on a plate.  .'
p314
aS'the person diced a red pepper.  .'
p315
aS'the person sliced a red pepper and set it on a plate on the counter.  .'
p316
aS'the person cut a chili pepper.  .'
p317
aS'the person washes a chili pepper and cuts it into small slices.  .'
p318
aS'the person cut up a chili.  .'
p319
aS'the person entered the kitchen and sliced a pepper.  .'
p320
aS'the person entered the kitchen and took out a chopping board, a knife, a chili pepper and a white saucer and then proceeded to cut the chili pepper into small pieces before placing it on the saucer.  .'
p321
aS'the person sliced a red chili pepper and placed it on a plate.  .'
p322
aS'the person washed and sliced a hot pepper.  .'
p323
aS'the person prepared a plate of sliced garlic.  .'
p324
aS'the person sliced and diced two cloves of garlic.  .'
p325
aS'the person peeled and chopped the garlic.  .'
p326
aS'the person chopped garlic before putting them into a cabinet.  .'
p327
aS'the person diced two garlic cloves.  .'
p328
aS'the person peeled and sliced the garlic.  .'
p329
aS'the person sliced the garlic into small pieces.  .'
p330
aS'the person peeled and minced two cloves of garlic before tidying up.  .'
p331
aS'the person chopped up some garlic after which he washed up his utensils and saved the garlic in a cupboard.  .'
p332
aS'the person chopped garlic.  .'
p333
aS'the person came into the kitchen and chopped some garlic.  .'
p334
aS'the person cut and diced a clove of garlic, and put the finished product on a plate.  .'
p335
aS'the person diced garlic into small pieces and placed it on a dish in the cupboard.  .'
p336
aS'the person diced two garlic cloves.  .'
p337
aS'the person prepared garlic.  .'
p338
aS'the person chopped garlic.  .'
p339
aS'the person entered the kitchen and diced some garlic.  .'
p340
aS'the person diced two pieces of garlic.  .'
p341
aS'the person diced some garlic.  .'
p342
aS'the person peeled and diced two small pieces of garlic.  .'
p343
aS'the person entered the kitchen and toasted bread.  .'
p344
aS'the person went into the kitchen and toasted two pieces of bread very briefly, not even long enough to color it golden.  .'
p345
aS'the person tried to toast some bread and then returned it to his cabinet.  .'
p346
aS'using a toaster to make toast.  .'
p347
aS'the person made two slices of toast and put it on a plate in the cabinet.  .'
p348
aS'the person made toast which he placed in a cabinet.  .'
p349
aS'the person toasted two slices of bread.  .'
p350
aS'the person made toast with a toaster and placed it in the cabinet.  .'
p351
aS'the person made toast.  .'
p352
aS'the person toasted two slices of bread, put them on a plate and put the plate back in the cabinet.  .'
p353
aS'the person toasted bread.  .'
p354
aS'the person toasted two slices of bread in the kitchen and put it away on a plate in the cupboard.  .'
p355
aS'the person toasted bread in a toaster.  .'
p356
aS'the person toasts two slices of bread using a toaster.  .'
p357
aS'the person made toast in the toaster.  .'
p358
aS'the person made toast and put the toast on a plate into the cupboard.  .'
p359
aS'the person used a toaster and prepared toast.  .'
p360
aS'the person walked into the kitchen and toasted two slices of bread.  .'
p361
aS'the person made toast and stored it.  .'
p362
aS'the person toasted two pieces of toast in a toaster.  .'
p363
aS'the person entered the kitchen and cut a clove of garlic into small pieces.  .'
p364
aS'the person chopped a clove of garlic into smaller pieces.  .'
p365
aS'the person peeled and diced garlic.  .'
p366
aS'the person successfully diced a section of a garlic clove on the second try, cleaned his work area of waste vegetable matter, washed and dried his hands, and left the kitchen.  .'
p367
aS'the person cleaned a piece of garlic and chopped it with a knife.  .'
p368
aS'the person sliced a clove of garlic into small pieces.  .'
p369
aS'the person sliced some garlic.  .'
p370
aS'the person diced garlic on a cutting board.  .'
p371
aS'the person cleaned and cut up some garlic, cleaned the kitchen and left.  .'
p372
aS'the person sliced garlic on a cutting board.  .'
p373
aS'the person entered into kitchen and cut a garlic clove into several pieces.  .'
p374
aS'the person peeled a clove of garlic and cut it into small pieces then threw away the skins.  .'
p375
aS'the person peeled and minced garlic.  .'
p376
aS'the person sliced a piece of garlic.  .'
p377
aS'how to peel and dice a clove of garlic.  .'
p378
aS'the person needed two attempts to prepare a piece of garlic.  .'
p379
aS'the person peeled and sliced garlic.  .'
p380
aS'the person peeled and diced a clove of garlic.  .'
p381
aS'the person peeled and diced garlic cloves.  .'
p382
aS'the video shows how to chop up a single clove of garlic into tiny pieces.  .'
p383
aS'the person walked into the kitchen and cut and pitted a plum.  .'
p384
aS'the person cut a plum into quarters, throwing away the pit.  .'
p385
aS'the person showed us how to prepare a plum.  .'
p386
aS'the person sliced a plum into wedges.  .'
p387
aS'the person cut a plum into quarters.  .'
p388
aS'the person sliced up a plum and placed it on the plate.  .'
p389
aS'the person entered the kitchen and sliced a plum into quarters.  .'
p390
aS'the person sliced and pitted a plum.  .'
p391
aS'the person entered the kitchen and sliced a plum into quarters.  .'
p392
aS'the person cut up a plum.  .'
p393
aS'the person sliced a plum and then cleaned up.  .'
p394
aS'the person sliced a small fruit into pieces.  .'
p395
aS'the person chopped a small red fruit.  .'
p396
aS'the person cut a plum into fourths and removed the pit.  .'
p397
aS'the person entered kitchen and took a plum then he sliced it.  .'
p398
aS'the person cut a plum into slices.  .'
p399
aS'the person cut a fruit.  .'
p400
aS'the person sliced a plum.  .'
p401
aS'the person cut a plum or nectarine into slices.  .'
p402
aS'the person cut and peeled a small food item and washed the knife when he finished.  .'
p403
aS'the person separated the yellow and white yolk of an egg in a cup and saucer.  .'
p404
aS'the person poured egg yolk into the bowl and cup.  .'
p405
aS'the person cracked an egg and poured egg white into the cup and the yolk on a plate.  .'
p406
aS'the person cracked an egg.  .'
p407
aS'the person seperated an egg.  .'
p408
aS'the person obtained an egg and two containers which the person used to hold an egg white and egg yolk separately after separating the two egg parts.  .'
p409
aS'the person separated the yellow and white yolk of an egg in a cup and saucer.  .'
p410
aS'the person separated the whites and yolk from an egg into two separate bowls.  .'
p411
aS'the person cracked a raw egg and separated the white from the yolk.  .'
p412
aS'the person separated an egg white and yolk.  .'
p413
aS'the person placed the yolk of an egg on a plate.  .'
p414
aS'the person separated an egg white and yolk into a cup and plate.  .'
p415
aS'the person entered the kitchen and separated an egg.  .'
p416
aS'the person cracked open an egg.  .'
p417
aS'the person in a kitchen cracked an egg, drained the whites into a cup, and poured the yolk onto a plate.  .'
p418
aS'the person enters the kitchen and separates the egg whites and yolk into different containers before cleaning up and leaving.  .'
p419
aS'the person separated the yellow and white yolk of an egg in a cup and saucer.  .'
p420
aS'the person separated the yellow and white yolk of an egg in a cup and saucer.  .'
p421
aS'the person separated an egg.  .'
p422
aS'the person separated an egg.  .'
p423
aS'the cook cubed a avocado.  .'
p424
aS'the person walked into the kitchen and prepared diced fresh avocado.  .'
p425
aS'the person walked into a kitchen and diced an avocado using a paring knife.  .'
p426
aS'the person sliced an avocado.  .'
p427
aS'the person peeled an avocado and then diced it into pieces.  .'
p428
aS'the person prepared an avocado on a cutting board.  .'
p429
aS'the person peeled and diced an avocado.  .'
p430
aS'the person peeled, pitted, and chopped an avocado.  .'
p431
aS'the person peeled, pitted, and diced an avocado.  .'
p432
aS'the person peeled and sliced an avocado.  .'
p433
aS'the person walked into the kitchen and used a vegetable peeler and a knife to peel and dice an avocado.  .'
p434
aS'the person peeled and chopped an avocado into small squares.  .'
p435
aS'the person diced an avocado.  .'
p436
aS'the person demonstrated how to peel, pit, and cut an avocado.  .'
p437
aS'the person cut an avocado into cubes.  .'
p438
aS'the person walked into the kitchen and cut an avocado into chunks.  .'
p439
aS'the person cleaned and diced an avocado.  .'
p440
aS'the person peeled, pitted, and cubed an avocado.  .'
p441
aS'the person entered the kitchen and sliced an avocado into cubes.  .'
p442
aS'the person cut up an avocado.  .'
p443
aS'the person made scrambled eggs.  .'
p444
aS'the person scrambled eggs with seasoning and herbs.  .'
p445
aS'the person came into kitchen,cooked omelette and garnished it with grass.  .'
p446
aS'the person entered the kitchen, scrambled two eggs and served them on a plate with some chives.  .'
p447
aS'the person prepared scrambled eggs with spices and fresh-cut herbs.  .'
p448
aS'the person cooked two eggs.  .'
p449
aS'the person scrambled two eggs in a pan.  .'
p450
aS'the person cooked some eggs.  .'
p451
aS'the person cooked eggs.  .'
p452
aS'the person cooked eggs in a skillet with herbs.  .'
p453
aS'the person walked into the kitchen and cooked two eggs.  .'
p454
aS'the person cooked eggs.  .'
p455
aS'the person made scrambled eggs with chives.  .'
p456
aS'the person scrambled eggs with herbs.  .'
p457
aS'the kitchen the person prepared an item of nice preparation with eggs.  .'
p458
aS'the person cooked scrambled eggs.  .'
p459
aS'the person cooked two scrambled eggs in butter, with herbs and seasonings.  .'
p460
aS'the person cooked some eggs and placed a fork on the finished plate.  .'
p461
aS'the person did omelet in kitchen.  .'
p462
aS'the person scrambled two eggs and added fresh herbs to them.  .'
p463
aS'the person prepared scrambled eggs.  .'
p464
aS'the person entered the kitchen and cooked broccoli.  .'
p465
aS'the person prepared half a head of broccoli.  .'
p466
aS'the person entered the kitchen, chopped a head of broccoli, and added it to a pot of water.  .'
p467
aS'the person cut and boiled broccoli.  .'
p468
aS'the person chopped up broccoli and put it in a pot.  .'
p469
aS'the person placed the broccoli into a pot of water.  .'
p470
aS'the person entered the kitchen and cooked broccoli in a pot of salted water.  .'
p471
aS'the person walked into a kitchen, cleaned, cut and cooked some broccoli.  .'
p472
aS'the person boiled broccoli.  .'
p473
aS'the person chopped up broccoli and put it into boiling water.  .'
p474
aS'the person chopped and boiled broccoli.  .'
p475
aS'the person walked into the kitchen and cut a head of broccoli.  .'
p476
aS'the person cooked broccoli in hot water.  .'
p477
aS'the person prepared broccoli and then boiled it in water.  .'
p478
aS'the person prepared broccoli to boil.  .'
p479
aS'the person put a pot of water onto the stove and prepared broccoli for a meal.  .'
p480
aS'the person chopped a broccoli in two and placed it in a pot full of water.  .'
p481
aS'the person prepared broccoli for cooking.  .'
p482
aS'the person put a chopped broccoli into a saucepan with water ad salt.  .'
p483
aS'the person chopped fresh broccoli and placed it in a pot of water to cook.  .'
p484
aS'the person cut broccoli and placed it into a pot of water on the stove.  .'
p485
aS'the person prepared broccoli to be boiled.  .'
p486
aS'the person cut a broccoli into smaller pieces and cooked it in a pot.  .'
p487
aS'the person began boiling broccoli florets on the stove.  .'
p488
aS'the person made toast with a toaster and two slices of white bread.  .'
p489
aS'the person used a toaster and prepared toast.  .'
p490
aS'the person used a toaster to toast some bread and set it on a plate.  .'
p491
aS'the person toasted two slices of bread in a toaster and put the toast on a plate.  .'
p492
aS'the person plugged in the toaster, put two slices of bread inside, and put them on a plate when they were done.  .'
p493
aS'the person went into the kitchen and used the toaster to make perfect toast.  .'
p494
aS'the person made toast.  .'
p495
aS'the person took bread and put it into the toaster and, after the toast was made, he put it onto a plate.  .'
p496
aS'the person cooked toast and left it on a small plate.  .'
p497
aS'the person used a toaster to made two slices of white toast.  .'
p498
aS'the person toasted two slices of bread in a toaster.  .'
p499
aS'the person toasted bread.  .'
p500
aS'the person walked into the kitchen and toasted two slices of bread.  .'
p501
aS'the person goes into a kitchen and makes toast.  .'
p502
aS'the person made toast.  .'
p503
aS'the person made toast and set it on the counter.  .'
p504
aS'the person used the toaster to toast two slices of bread.  .'
p505
aS'the person made toast in a toaster.  .'
p506
aS'the cook toasted two pieces of bread in a toaster and put them on a plate on the counter.  .'
p507
aS'the person made toast.  .'
p508
aS'the person cuts a plum into a bowl.  .'
p509
aS'the person came into the kitchen cut a plum.  .'
p510
aS'the person cleaned, sliced, and placed the plum slices on a plate.  .'
p511
aS'the person cut and deseeded a plum.  .'
p512
aS'the person pitted and sliced a plum.  .'
p513
aS'the person sliced the plum.  .'
p514
aS'the person sliced a plum.  .'
p515
aS'the person skinned a plum and placed it in a bowl.  .'
p516
aS'the person cut up a plum into four parts.  .'
p517
aS'the person quartered a plum.  .'
p518
aS'the person cut a plum into quarters.  .'
p519
aS'the person cut up a piece of fruit in the kitchen.  .'
p520
aS'the person rinsed and cut the plum.  .'
p521
aS'the person washed the plum and cut it, throwing away the pit.  .'
p522
aS'using a knife,  the person quartered a plum in a kitchen.  .'
p523
aS'the person entered the kitchen and cut a plum into pieces.  .'
p524
aS'the person peeled and cut an orange.  .'
p525
aS'the person peeled and quartered an orange.  .'
p526
aS'the person plated peeled oranges after preparing them.  .'
p527
aS'the person peeled and cut an orange into four vertical chunks.  .'
p528
aS'the person peeled an orange into quarters and placed it on a plate.  .'
p529
aS'the person came in kitchen and he took an orange from refrigerator and divided it in four pieces.  .'
p530
aS'the person came into the kitchen and peeled and cut an orange.  .'
p531
aS'the person peeled and cut an orange into quarters.  .'
p532
aS'the person peeled and sliced an orange.  .'
p533
aS'the person peeled and quartered a orange.  .'
p534
aS'the person prepared a plate of oranges.  .'
p535
aS'the person sliced an orange into fourths.  .'
p536
aS'the person went into the kitchen and cut an orange.  .'
p537
aS'the person peeled and segmented an orange.  .'
p538
aS'the person peeled and sliced an orange.  .'
p539
aS'the person peeled an orange and cut it into 4 wedges.  .'
p540
aS'the person cut up an orange into four quarters, peeling it by using a spoon to remove the skin.  .'
p541
aS'the person entered the kitchen and sliced an orange.  .'
p542
aS'the person made orange into pieces with knife ,spoon and cleaned them.  .'
p543
aS'the person peeled and quartered an orange.  .'
p544
aS'the person julienned a piece of ginger.  .'
p545
aS'the person chopped ginger and set it on a plate.  .'
p546
aS'the person sliced ginger root.  .'
p547
aS'the person demonstrated how to cut a ginger root.  .'
p548
aS'the person sliced ginger into small pieces.  .'
p549
aS'the person washed and sliced a small piece of ginger.  .'
p550
aS'the person entered the kitchen, took out and sliced some ginger and placed the slices on a plate.  .'
p551
aS'the person finely chopped some ginger.  .'
p552
aS'the person entered the kitchen and sliced a ginger root.  .'
p553
aS'the person entered kitchen took a ginger and finely chopped it.  .'
p554
aS'the person walked into the kitchen and sliced half a bulb of ginger.  .'
p555
aS'the person rinsed and sliced some ginger for a meal.  .'
p556
aS'the person cut a root of ginger into slices.  .'
p557
aS'the person walked into the kitchen and julienned some ginger root.  .'
p558
aS'the person sliced a ginger into thin chips .  .'
p559
aS'the person julienned ginger without peeling it.  .'
p560
aS'the person cut thin strips of ginger.  .'
p561
aS'the person chopped a ginger.  .'
p562
aS'the person sliced up ginger and placed it on the plate.  .'
p563
aS'the person washed and sliced ginger.  .'
p564
aS'the person sliced some ginger.  .'
p565
aS'the person sliced ginger into small pieces and put it in a bowl.  .'
p566
aS'the person peeled potatoes.  .'
p567
aS'the person entered a kitchen and cut the potatoes and then the person left.  .'
p568
aS'the person peeled and chopped two potatoes.  .'
p569
aS'the person finished preparing potatoes after he washed, peeled, and cut them into slices and put them onto a plate.  .'
p570
aS'the person washed, peeled and diced two potatoes.  .'
p571
aS'the person entered the kitchen and diced two potatoes.  .'
p572
aS'the person peeled and cut two potatoes into small pieces.  .'
p573
aS'the person peeled and cut two potatoes into pieces.  .'
p574
aS'the person entered the kitchen and sliced some potatoes.  .'
p575
aS'the person peeled and chopped up two potatoes.  .'
p576
aS'the person cut up some potatoes in the kitchen.  .'
p577
aS'the person chopped potatoes.  .'
p578
aS'the person prepared a plate of sliced potatoes.  .'
p579
aS'the person peeled and sliced two potatoes.  .'
p580
aS'the person sliced two potatoes.  .'
p581
aS'the person plated the potatoes he sliced.  .'
p582
aS'the person washed, peeled, and cut up two potatoes.  .'
p583
aS'the person sliced two potatoes into many pieces.  .'
p584
aS'the person chopped up a small piece of stem ginger.  .'
p585
aS'the person chopped ginger.  .'
p586
aS'the person minced ginger into very fine pieces.  .'
p587
aS'the person went into the kitchen and minced some ginger.  .'
p588
aS'the person sliced the ginger.  .'
p589
aS'the person minced some ginger.  .'
p590
aS'the person diced some ginger.  .'
p591
aS'the person diced a pice of ginger.  .'
p592
aS'the person chopped up ginger.  .'
p593
aS'the person walked into the kitchen, got some ginger and cut it into small pieces.  .'
p594
aS'the person peeled and chopped a piece of ginger.  .'
p595
aS'the person sliced a piece of ginger into small pieces.  .'
p596
aS'the person peeled and chopped ginger.  .'
p597
aS'the person entered the kitchen and chopped some ginger.  .'
p598
aS'the person prepared chopped ginger.  .'
p599
aS'the person peeled and diced ginger.  .'
p600
aS'the person diced ginger root.  .'
p601
aS'the person peeled and diced ginger.  .'
p602
aS'the person grated, and chopped a piece of ginger.  .'
p603
aS'the person cam into kitchen made ginger into pieces .  .'
p604
aS'the person made some tea.  .'
p605
aS'the person makes tea by boiling water in a large kettle and pouring the water in a small pot with a teabag.  .'
p606
aS'the person entered the kitchen and made some tea.  .'
p607
aS'the person made a cup of tea.  .'
p608
aS'the person prepared a cup of tea.  .'
p609
aS'the person prepared a cup of tea.  .'
p610
aS'the person prepared tea with some sugar.  .'
p611
aS'the person prepared a pot of tea.  .'
p612
aS'the person made weak tea with sugar.  .'
p613
aS'the person made some tea.  .'
p614
aS'the person made tea.  .'
p615
aS'the person made some hot tea with sugar.  .'
p616
aS'the person brewed a cup of tea.  .'
p617
aS'the person made tea.  .'
p618
aS'the person made tea.  .'
p619
aS'the person walked into the kitchen, made a pot of tea and poured some in a mug.  .'
p620
aS'the person made tea.  .'
p621
aS'the person heats water, pours it into a tea pot with a tea ball, and then pours herself a cup of tea.  .'
p622
aS'the person entered the kitchen and brewed a cup of tea.  .'
p623
aS'the person trimmed and then sliced some long beans.  .'
p624
aS'the person prepared vegetables.  .'
p625
aS'the person cut up green beans and put them in a bowl.  .'
p626
aS'the person showed us how to slice snap pea pods.  .'
p627
aS'the person rinsed and sliced fresh green beans.  .'
p628
aS'the person was preparing snap peas.  .'
p629
aS'the person rinsed and sliced pea pods.  .'
p630
aS'the person entered the kitchen and sliced some snap peas.  .'
p631
aS'the person entered the kitchen and peeled and cut vegetables.  .'
p632
aS'the person washed and sliced a handful of pea pods.  .'
p633
aS'the person entered kitchen and chopped some green beans.  .'
p634
aS'the person trimmed and sliced pea pods.  .'
p635
aS'the person cut green beans into small pieces.  .'
p636
aS'the person prepared vegetables by washing them in the sink, trimming the edges, and cutting them into diagonal pieces.  .'
p637
aS'the person cut some beans.  .'
p638
aS'the person entered the kitchen and sliced bean pods into a bowl.  .'
p639
aS'the person cut up green beans.  .'
p640
aS'the person walked into the kitchen and sliced some green beans.  .'
p641
aS'the person washed and cut snowpeas.  .'
p642
aS'the person prepared a fresh glass of orange juice.  .'
p643
aS'the person juiced an orange and poured the juice into a glass.  .'
p644
aS'the person made orange juice.  .'
p645
aS'the person made fresh squeezed orange juice with extra pulp, washing the orange throughly first.  .'
p646
aS'the person went into the kitchen and used a juicer to juice an orange.  .'
p647
aS'the person made orange juice.  .'
p648
aS'the person juiced an orange and poured the juice into a glass.  .'
p649
aS'the person cut and juiced an orange.  .'
p650
aS'the person walked into the kitchen and juiced an orange.  .'
p651
aS'the person squeezed some fresh orange juice with pulp.  .'
p652
aS'the person entered into kitchen and prepared a glass of orange juice with pulp.  .'
p653
aS'the person juiced an orange.  .'
p654
aS'the person squeezed out the juice of an orange.  .'
p655
aS'the person juiced an orange.  .'
p656
aS'the person came into the kitchen and juiced an orange into a glass.  .'
p657
aS'the person juiced a fresh orange to make orange juice.  .'
p658
aS'the person juiced an orange.  .'
p659
aS'the person used an orange to create orange juice with pulp.  .'
p660
aS'the person entered the kitchen and juiced an orange.  .'
p661
aS'the person juiced an orange.  .'
p662
aS'the person cut up cauliflower.  .'
p663
aS'the person cut and broke apart a head of cauliflower.  .'
p664
aS'the person sliced a whole cauliflower into pieces.  .'
p665
aS'the person prepared a head of cauliflower for use later in cooking.  .'
p666
aS'the person cut up cauliflower.  .'
p667
aS'the person took a head of cauliflower from the fridge and prepared it.  .'
p668
aS'the person cleaned a cauliflower.  .'
p669
aS'the person prepared cauliflower in his kitchen.  .'
p670
aS'the person prepared a meal using cauliflower.  .'
p671
aS'the person entered the kitchen and cut up a cauliflower.  .'
p672
aS'the person cleaned and cut cauliflower.  .'
p673
aS'the person peeled and cut up a cauliflower.  .'
p674
aS'the person cut up a head of cauliflower.  .'
p675
aS'the person cut the florets and leaves off of a large head of cauliflower and placed the florets into a steel colander.  .'
p676
aS'the person cut cauliflower into big florets & discarded trash into dustbin.  .'
p677
aS'the person entered the kitchen and cleaned and chopped a cauliflower.  .'
p678
aS'the person demonstrated how to cut a whole cauliflower.  .'
p679
aS'the person entered the kitchen, cleaned and cut up some cauliflower and cleaned up his mess.  .'
p680
aS'the person grabbed a cauliflower, trimmed it, and carefully cut it into many small pieces.  .'
p681
aS'the person cut up an orange.  .'
p682
aS'the person cut an orange and put it on a plate.  .'
p683
aS'the person peeled and sliced an orange.  .'
p684
aS'the person cut up an orange.  .'
p685
aS'the person peeled and sliced an orange in small dices and placed them on a plate.  .'
p686
aS'the person peeled and cut an orange.  .'
p687
aS'the person peeled and diced an orange.  .'
p688
aS'the person peeled, sliced and quartered an orange.  .'
p689
aS'the person cut an orange into small pieces and served them on a plate.  .'
p690
aS'how to slice an orange video.  .'
p691
aS'the person peeled and sliced an orange.  .'
p692
aS'the person cut an orange into pieces in a kitchen.  .'
p693
aS'the person cut peeled and cut the orange.  .'
p694
aS'how to peel and piece oranges the proper way.  .'
p695
aS'the person peeled and cut an orange.  .'
p696
aS'the person sliced an orange and placed the pieces onto a plate.  .'
p697
aS'the person cut an orange into pieces.  .'
p698
aS'the person entered the kitchen and sliced an orange.  .'
p699
aS'the person cut orange slices into fourths.  .'
p700
aS'the person cut oranges into round sections for drinks.  .'
p701
aS'the person walked into a kitchen and sliced an orange.  .'
p702
aS'the person prepared cauliflower.  .'
p703
aS'the person cleaned and cut up a whole cauliflower head.  .'
p704
aS'the person cut some cauliflower.  .'
p705
aS'the person cut a head of cauliflower into small pieces and placed them into a strainer.  .'
p706
aS'the person cut and prepared the cauliflower.  .'
p707
aS'the person prepared a head of cauliflower for eating and accumulated a bowl of full of the most edible parts.  .'
p708
aS'the person trimmed and chopped cauliflower.  .'
p709
aS'the person cut a cauliflower into florets.  .'
p710
aS'the person prepared a bowl of sliced cauliflower.  .'
p711
aS'the person cut the cauliflower into pieces and transferred to a bowl.  .'
p712
aS'the person cut the caulifloer into pieces and transferred to a bowl.  .'
p713
aS'the person cut the cauliflower into small pieces and transferred to a bowl.  .'
p714
aS'the person chopped a head of cauliflower and put the pieces in a bowl.  .'
p715
aS'the person cut a head of cauliflower into pieces.  .'
p716
aS'the person diced cauliflower and placed it into a bowl.  .'
p717
aS'the person entered the kitchen and chopped a cauliflower.  .'
p718
aS'the person cut the cauliflower into pieces and transferred to a bowl.  .'
p719
aS'the person sliced the cauliflower into pieces.  .'
p720
aS'the person cut a head of cauliflower into bite-sized pieces.  .'
p721
aS'the person prepared cauliflower.  .'
p722
aS'the person brewed coffee.  .'
p723
aS'the person prepared a cup of coffee with cream.  .'
p724
aS'the person went into the kitchen and made coffee.  .'
p725
aS'the person entered the kitchen and brewed some coffee.  .'
p726
aS'the person made coffee.  .'
p727
aS'the person entered the kitchen made a cup of coffee.  .'
p728
aS'the person prepared a cup of coffee.  .'
p729
aS'the person made some coffee with some creamer.  .'
p730
aS'the person made very strong coffee with cream and cleaned up a bit.  .'
p731
aS'the person demonstrated how to make a pot of coffee.  .'
p732
aS'the person made a cup of coffee.  .'
p733
aS'the person made coffee.  .'
p734
aS'the person made coffee.  .'
p735
aS'the person walked into the kitchen and made a cup of coffee.  .'
p736
aS'the person prepared and poured a cup of coffee.  .'
p737
aS'the person made some coffee.  .'
p738
aS'the person made coffee.  .'
p739
aS'the person walked into the kitchen to make coffee.  .'
p740
aS'the person brewed a pot of coffee.  .'
p741
aS'the person made coffee.  .'
p742
aS'the person diced a cucumber.  .'
p743
aS'the person cut a cucumber into cubes.  .'
p744
aS'the person sliced a cucumber into little pieces on the cutting board.  .'
p745
aS'the person chopped a cucumber.  .'
p746
aS'the person sliced a cucumber into small chunks.  .'
p747
aS'the person sliced a cucumber into small pieces.  .'
p748
aS'the person diced the cucumber.  .'
p749
aS'the person finely cut a cucumber.  .'
p750
aS'the person came into the kitchen and cut a cucumber into pieces.  .'
p751
aS'the person sliced a cucumber into small pieces.  .'
p752
aS'the person in the kitchen cut up a cucumber into many chunks.  .'
p753
aS'the person diced a cucumber.  .'
p754
aS'the person diced a cucumber.  .'
p755
aS'the person sliced and diced a cucumber.  .'
p756
aS'the person entered the kitchen and cut a cucumber into small pieces.  .'
p757
aS'cucumber sliced into small pieces.  .'
p758
aS'the person sliced and cut a cucumber.  .'
p759
aS'the person chopped a cucumber.  .'
p760
aS'the person rinsed and sliced the cucumber.  .'
p761
aS'the person diced up a cucumber.  .'
p762
aS'the person walked into the kitchen and made tea with an electronic boiler.  .'
p763
aS'the person brewed a cup of tea using an electric water-kettle and a tea infuser.  .'
p764
aS'the person made tea.  .'
p765
aS'the person prepared tea and poured it into a cup.  .'
p766
aS'the person made tea using an electric water kettle, a glass teapot and loose tea leaves.  .'
p767
aS'the person entered the kitchen and made some tea.  .'
p768
aS'the person used a tea maker, a tea pot, an infuser ball, a package of tea grounds, a spoon and some water to make hot tea and then poured some into a cup.  .'
p769
aS'the person heated water and poured a cup of coffee.  .'
p770
aS'the person brewed tea by heating water in an electric pitcher and infusing the tea in a pot with an infuser.  .'
p771
aS'the person made a cup of tea.  .'
p772
aS'the person prepared tea.  .'
p773
aS'the person prepared a glass of tea.  .'
p774
aS'the person brewed some tea.  .'
p775
aS'the person walked into the kitchen, made a pot of tea and poured it into a mug.  .'
p776
aS'the person made tea.  .'
p777
aS'the person brewed hot tea.  .'
p778
aS'the person prepared a pot of tea and poured it into a mug.  .'
p779
aS'tea was prepared in this video.  .'
p780
aS'the person prepared a cup of tea in the kitchen.  .'
p781
aS'the person entered a kitchen and prepared himself a cup of tea using an electric kettle, a teapot and loose leaf tea in a tea infuser.  .'
p782
aS'the person cut a lime in half, juice both parts, and then cleaned up before pouring the juice in a glass and cleaning the juicer.  .'
p783
aS'the person entered the kitchen, juiced a lime and cleaned up.  .'
p784
aS'the person juiced a lime and put it in a glass.  .'
p785
aS'the person squeezed the lime and he poured the lime juice in one glass.  .'
p786
aS'the person juiced a lime.  .'
p787
aS'the person made lime juice.  .'
p788
aS'the person entered the kitchen and juiced a lime.  .'
p789
aS'the person squeezed a lime and made juice from it and poured in a glass.  .'
p790
aS'the person entered the kitchen and juiced a lime.  .'
p791
aS'the person sliced a lime in half and twisted it over a juicer.  .'
p792
aS'the person made lime juice.  .'
p793
aS'the person came in kitchen and he prepared lime water for herself.  .'
p794
aS'the person squeezed a lime thoroughly.  .'
p795
aS'the person cut a lime in half, squeezed the juice out and poured it into a glass.  .'
p796
aS'the person prepared lime juice.  .'
p797
aS'the person went into the kitchen and juiced a lime.  .'
p798
aS'the person cut and juiced one lime.  .'
p799
aS'the person squeezed juice from a cut lime and poured to glass.  .'
p800
aS'the person prepared a glass of fresh lime juice.  .'
p801
aS'the person cut and juiced a lime, and poured it into a glass.  .'
p802
aS'the person cut a pomegranate fruit.  .'
p803
aS'the person seeded a pomegranate in less than 12 minutes.  .'
p804
aS'the person cut a pomegranate and removed the seeds.  .'
p805
aS'the person entered kitchen and grabbed a pomegranate, sliced it and removed the seeds to the plate.  .'
p806
aS'the person seeded a pomegranate.  .'
p807
aS"the person removed a pomegranate's arils.  ."
p808
aS'the person removed the seeds from a pomegranate.  .'
p809
aS'the person removed all the seeds from a pomegranate.  .'
p810
aS'the person removed pomegranate seeds into a bowl.  .'
p811
aS'the video shows how to de-seed a pomegranate.  .'
p812
aS'the person cut a pomegranate and emptied the seeds onto a plate.  .'
p813
aS'the person picked pomegranate seeds.  .'
p814
aS'the person entered the kitchen and prepared a pomegranate.  .'
p815
aS'the person prepared a pomegranate in his kitchen.  .'
p816
aS'the person entered the kitchen and seeded a pomegranate onto a plate.  .'
p817
aS'the person rinsed a pomegranate, cut it in half, and peeled the seeds from the flesh for a meal and cleaned up.  .'
p818
aS'the person cut and removed the seeds from a pomegranate.  .'
p819
aS'the person entered the kitchen, removed the seeds from a pomegranate and cleaned up afterwards.  .'
p820
aS'the person deseeded a pomegranate.  .'
p821
aS'the person cut a pomegranate, removed the seeds and put them on a plate.  .'
p822
aS'the person demonstrated how to properly cut and prepare a pomegranate.  .'
p823
aS'the person de-seeded a pomegranate the hard way.  .'
p824
aS'the person used the toaster to toast two pieces of bread.  .'
p825
aS'the person made toast in a toaster.  .'
p826
aS'the person toasted two slices of bread in a toaster.  .'
p827
aS'the person made two slices of toast in a toaster, put them on a plate, and put the plate in a cabinet.  .'
p828
aS'the person made toast.  .'
p829
aS'the person toasted bread.  .'
p830
aS'the person tried to make some toast but the toaster did not work, so he put it away again and walked away.  .'
p831
aS'the person used a toaster to toast two pieces of toast.  .'
p832
aS'the person made toast.  .'
p833
aS'the person toasted bread by using a toaster.  .'
p834
aS'the person gets a toaster out from a cabinet and makes toast.  .'
p835
aS'the person entered the kitchen and toasted two pieces of bread.  .'
p836
aS'the person made toast.  .'
p837
aS'the person toasts two slices of bread in a toaster.  .'
p838
aS'the person used a toaster and toasted two slices of bread and put them on a plate.  .'
p839
aS'the person toasted two slices of bread in a toaster.  .'
p840
aS'the person made toast.  .'
p841
aS'the person toasted some bread in a toaster.  .'
p842
aS'the person toasted some slices of bread.  .'
p843
aS'the person prepared some herbs.  .'
p844
aS'the person chopped herbs.  .'
p845
aS'the person cleaned and chopped two different fresh herbs.  .'
p846
aS'the person entered the kitchen and chopped some herbs.  .'
p847
aS'the person prepared and chopped the leaves of the herbs into small pieces.  .'
p848
aS'the person prepared two plates of herbs.  .'
p849
aS'the person removed the leaves from two different types of herbs, cut the larger leaves up into smaller pieces, placed them all onto a plate, and finished preparing a dish of herbs.  .'
p850
aS'the person cut up some herbs.  .'
p851
aS'the person finely chopped some herbs.  .'
p852
aS'the person cleaned and prepared the herbs for use.  .'
p853
aS'the person finely chopped fresh herbs.  .'
p854
aS'the person went to the kitchen and chopped up some greens before putting them on a plate.  .'
p855
aS'the person prepared herbs.  .'
p856
aS'the person walked into the kitchen and chopped some herbs.  .'
p857
aS'the person prepared diced herbs and put it on a plate.  .'
p858
aS'the person chopped some herbs.  .'
p859
aS'the person prepared herbs.  .'
p860
aS'the person cleaned and chopped two kinds of herbs.  .'
p861
aS'the person walked into the kitchen and cleaned and chopped some herbs.  .'
p862
aS'the person chopped and prepared two different kinds of herbs onto a single plate.  .'
p863
aS'the person entered the kitchen and squeezed some garlic through a garlic press.  .'
p864
aS'the person entered in kitchen, he took garlic and removed the waste skin and sliced it.  .'
p865
aS'the person peeled and mashed two cloves of garlic with a garlic press.  .'
p866
aS'the person cracked garlic into small pieces.  .'
p867
aS'the person walked into the kitchen and peeled and pressed some garlic.  .'
p868
aS'the person pushed garlic through a garlic press.  .'
p869
aS'the person entered into the kitchen and pressed three garlic cloves with a hand garlic press.  .'
p870
aS'the person went into the kitchen and mashed up some garlic.  .'
p871
aS'the person crushed garlic in a garlic press.  .'
p872
aS'the person cut a clove of garlic with a knife, and then crushed the bigger pieces with the nutcracker.  .'
p873
aS'the person crushed garlic with a metal tool.  .'
p874
aS'the person taking out juice of garlic using squeezer.  .'
p875
aS'the person chopped and pressed garlic.  .'
p876
aS'the person peeled garlic and made it into a paste through a garlic press.  .'
p877
aS'the person walked into the kitchen and pressed some garlic.  .'
p878
aS'the person minced the garlic cloves.  .'
p879
aS'the person peeled and crushed three cloves of garlic with a garlic crusher.  .'
p880
aS'the person cut up garlic.  .'
p881
aS'the person entered a kitchen and pressed garlic cloves through a press.  .'
p882
aS'the person sliced and plated a mango.  .'
p883
aS'the person entered the kitchen and chopped a mango.  .'
p884
aS'the person peeled and sliced a mango.  .'
p885
aS'the person peels and chops a mango into small pieces.  .'
p886
aS'the person peeled and diced a mango.  .'
p887
aS'the person peeled and cut up a mango.  .'
p888
aS'the person made a plateful of chopped up mango in a kitchen.  .'
p889
aS'the person cut a mango into small pieces.  .'
p890
aS'the person peeled and sliced a mango.  .'
p891
aS'the person demonstrated how to cut a mango.  .'
p892
aS'the person sliced a mango and put the pieces into a bowl.  .'
p893
aS'the person peeled and diced a mango.  .'
p894
aS'the person washed, peeled, and sliced a mango.  .'
p895
aS'the person peeled and cored a mango, then chopped it and set it on a plate.  .'
p896
aS'the person sliced a mango into pieces.  .'
p897
aS'the person entered the kitchen and diced a mango.  .'
p898
aS'the person cut a mango into little pieces and put them in a plate.  .'
p899
aS'the person sliced a mango.  .'
p900
aS'the person peeled and cut a mango.  .'
p901
aS'the person walked into the kitchen, cleaned a plate, and than prepared a mango.  .'
p902
aS'the person diced carrots.  .'
p903
aS'the person in the video was not familiar with the kitchen where he prepared the carrots.  .'
p904
aS'the person chopped up a pair of carrots.  .'
p905
aS'the person peeled and chopped carrots.  .'
p906
aS'the person peeled and chopped up two carrots in a kitchen.  .'
p907
aS'the person peeled and diced two carrots.  .'
p908
aS'the person cut two carrots into slices.  .'
p909
aS'the person cut a carrot into slices.  .'
p910
aS'the person diced some carrots.  .'
p911
aS'the person walked into the kitchen and cut two carrots.  .'
p912
aS'the person peeled and sliced carrots.  .'
p913
aS'the person walked into the kitchen and chopped two carrots.  .'
p914
aS'the person peeled and chopped two carrots.  .'
p915
aS'the video demonstrates how to cut carrots into discs.  .'
p916
aS'the person peeled, rinsed, and sliced carrots for a meal.  .'
p917
aS'the person sliced two carrots.  .'
p918
aS'the person demonstrates proper carrot preparation.  .'
p919
aS'the person entered the kitchen and chopped some carrots.  .'
p920
aS'the person cut two small carrots.  .'
p921
aS'the person took and sliced two carrots.  .'
p922
aS'the person cleaned and chopped up two carrots.  .'
p923
aS'the person carved seeds out of a pepper.  .'
p924
aS'the person sliced open a pepper and removed the seeds.  .'
p925
aS'the person seeded a red pepper.  .'
p926
aS'the person cut off the top of a pepper and cleaned all the seeds from it.  .'
p927
aS'the person cut the top and white inside ribs off a pepper.  .'
p928
aS'the person entered the kitchen and cleaned out a pepper.  .'
p929
aS'the person removed seeds from the capsicum.  .'
p930
aS'the person gutted a pepper.  .'
p931
aS'the person entered the kitchen, cut open a pepper and cleaned the seeds out.  .'
p932
aS'the person removed the core of the pepper.  .'
p933
aS'the person deseeded a pepper.  .'
p934
aS'the person sliced open a red bell pepper and cut out the core.  .'
p935
aS'the person sliced the insides of a pepper.  .'
p936
aS'the person cut a red pepper and removed its membrane.  .'
p937
aS'the person chopped a bell pepper in half on a cutting board.  .'
p938
aS'the person gutted a red pepper.  .'
p939
aS'the person cut open a pepper and thoroughly took out all its seeds.  .'
p940
aS'the person prepares a pepper for cooking.  .'
p941
aS'the person deseeded a pepper.  .'
p942
aS'the person took the seeds out of a red pepper.  .'
p943
aS'the person cleaned and chopped some herb leafs.  .'
p944
aS'the person entered the kitchen and chopped some herbs.  .'
p945
aS'the person chopped some herbs.  .'
p946
aS'the person cleaned and chopped a bunch of herbs.  .'
p947
aS'the person cleaned and chopped some herbs.  .'
p948
aS'the person rinsed and chopped up herbs.  .'
p949
aS'the person prepared some herbs.  .'
p950
aS'the person picked and chopped herbs.  .'
p951
aS'the person plucked, washed, and chopped some herbs.  .'
p952
aS'the person washed, cut, and dry some herbs.  .'
p953
aS'the person rinsed some herbs and cut them into small pieces with a knife.  .'
p954
aS'the person finely chopped fresh herbs.  .'
p955
aS'the person prepared herbs.  .'
p956
aS'the person prepared herbs in a kitchen.  .'
p957
aS'the person walked into the kitchen and washed and chopped some herbs.  .'
p958
aS'the person walked into the kitchen and chopped some herbs.  .'
p959
aS'the person diced herbs.  .'
p960
aS'the person prepared chopped herbs.  .'
p961
aS'the person cleaned, strained, and chopped herbs.  .'
p962
aS'the person prepared diced herbs.  .'
p963
aS'the person sliced a pineapple.  .'
p964
aS'the person prepared a pineapple.  .'
p965
aS'the person sliced a pineapple.  .'
p966
aS'the person peeled and sliced a pineapple.  .'
p967
aS'the person cleaned and sliced a pineapple.  .'
p968
aS'the person demonstrated how to cut a pineapple into thin slices.  .'
p969
aS'the person walked into the kitchen and peeled and sliced a pineapple.  .'
p970
aS'the person peeled, cleaned and sliced a pineapple.  .'
p971
aS'the person peeled and sliced a pineapple.  .'
p972
aS'the person cut a pineapple in to slices.  .'
p973
aS'the person processed a pineapple for consumption.  .'
p974
aS'the person entered the kitchen and sliced a pineapple.  .'
p975
aS'the person walked into the kitchen and sliced a fresh pineapple into round slices.  .'
p976
aS'the person walked into the kitchen and sliced a pineapple.  .'
p977
aS'the person cut off the rind of a pineapple and then chopped the fruit up.  .'
p978
aS'the person peeled and chopped a pineapple.  .'
p979
aS'the person displays how to properly clean, slice, and discard of a pineapple.  .'
p980
aS'the person peels and slices a pineapple.  .'
p981
aS'the person prepared a pineapple, and then sliced it into discs.  .'
p982
aS'the person prepared a pineapple.  .'
p983
aS'the person prepared boiled broccoli.  .'
p984
aS'the person walked into the kitchen and cooked some broccoli.  .'
p985
aS'the person prepared and cooked some broccoli.  .'
p986
aS'the person made broccoli into pieces and boiled it.  .'
p987
aS'the person entered the kitchen and cooked some broccoli in a pot.  .'
p988
aS'the person went to the kitchen to make boiled broccoli, but instead he made cauliflower.  .'
p989
aS'the person boiled broccoli.  .'
p990
aS'the person cooked broccoli.  .'
p991
aS'the person came into kitchen,boiled broccoli,sprinkled pepper on cooked broccoli.  .'
p992
aS'the person cooked some broccoli in the kitchen.  .'
p993
aS'the person entered a kitchen and prepared a plate of boiled broccoli.  .'
p994
aS'the person cuts and cooks a plate of broccoli.  .'
p995
aS'the person cut and boiled broccoli.  .'
p996
aS'the person prepared broccoli by chopping,boiling, plating and seasoning it.  .'
p997
aS'the person entered the kitchen and cooked some broccoli.  .'
p998
aS'the person cooked broccoli florets.  .'
p999
aS'the person cooked broccoli.  .'
p1000
aS'the person prepared steamed broccoli.  .'
p1001
aS'the person boiled broccoli then seasoned it.  .'
p1002
aS'the person boiled broccoli.  .'
p1003
aS'the person washed and cut figs.  .'
p1004
aS'the person chopped up two figs.  .'
p1005
aS'the person cut up figs.  .'
p1006
aS'the person sliced and arranged some figs on a plate.  .'
p1007
aS'the person walked into the kitchen and cut two figs.  .'
p1008
aS'the person cut a fig into pieces.  .'
p1009
aS'the person prepared figs.  .'
p1010
aS'the person cleaned, sliced, and plated a pair of figs.  .'
p1011
aS'the person quartered two figs.  .'
p1012
aS'the person entered the kitchen and cut a fig into pieces.  .'
p1013
aS'the person sliced the figs into eight pieces.  .'
p1014
aS'the person entered the kitchen, washed two figs and cut them into pieces and kept in the plate.  .'
p1015
aS'the person cut up two figs into pieces.  .'
p1016
aS'the person prepareing a fig.  .'
p1017
aS'the person entered the kitchen and sliced two figs.  .'
p1018
aS'the person sliced the fruits into pieces and placed them on a table.  .'
p1019
aS'the person cut figs.  .'
p1020
aS'the person entered the kitchen and sliced some figs.  .'
p1021
aS'the person sliced two figs into quarters.  .'
p1022
aS'the person sliced two figs into wedges.  .'
p1023
aS'the person made kiwi fruit into pieces.  .'
p1024
aS'the person cut the kiwi fruits into pieces and arranged on a plate.  .'
p1025
aS'the person peeled and diced two kiwis.  .'
p1026
aS'the person walked into the kitchen, cut up some kiwi and cleaned up.  .'
p1027
aS'the person peeled and sliced two kiwis.  .'
p1028
aS'the person cut the kiwi fruit into pieces and placed them on a plate.  .'
p1029
aS'the person prepared a plate of sliced kiwi fruit.  .'
p1030
aS'the person peeled and cut up two kiwi fruit.  .'
p1031
aS'the person rinsed and cut two kiwi fruit and cleaned up after placing them on a plate.  .'
p1032
aS'the person peeled and diced two kiwis.  .'
p1033
aS'the person prepared kiwi to eat.  .'
p1034
aS'the person peeled and cut kiwis.  .'
p1035
aS'the person walked into the kitchen and cubed two kiwis.  .'
p1036
aS'the person diced two kiwis.  .'
p1037
aS'the person diced two kiwifruits into smaller pieces.  .'
p1038
aS'the person sliced two kiwis into small pieces.  .'
p1039
aS'the person cut two kiwis into chunks.  .'
p1040
aS'the person entered the kitchen and cut two kiwis into small pieces.  .'
p1041
aS'the person entered into the kitchen and cut the washed, peeled kiwi fruits into pieces.  .'
p1042
aS'the person cut two kiwi fruits into small pieces.  .'
p1043
aS'the person prepared an orange.  .'
p1044
aS'the person peeled, and divided an orange into numerous different pieces.  .'
p1045
aS'the person peeled an orange and cleaned up the orange peels.  .'
p1046
aS'the person peeled and split apart an orange.  .'
p1047
aS'the person entered a kitchen, peeled an orange with a knife, and put the segments on a plate.  .'
p1048
aS'the person peeled and separated an orange into individual segments.  .'
p1049
aS'the person peeled a orange.  .'
p1050
aS'the person walked into the kitchen and peeled and sectioned an orange.  .'
p1051
aS'the person peeled and split an orange.  .'
p1052
aS'the person peeled an orange into a bowl.  .'
p1053
aS'the person peeled and broke apart an orange.  .'
p1054
aS'the person peeled and sectioned a orange.  .'
p1055
aS'the person split an orange into individual pieces.  .'
p1056
aS'the person put an orange on the plate in pieces.  .'
p1057
aS'the person who came to the kitchen knew how to remove the hard skin of the pomegranate.  .'
p1058
aS'the person peeled an orange.  .'
p1059
aS'the person peeled and seperated an orange.  .'
p1060
aS'the person peeled and segmented an orange.  .'
p1061
aS'the person prepared an orange to eat, put it on a plate, and washed his hands.  .'
p1062
aS'the person peels an orange over the sink with a knife and places the individual slices onto a plate.  .'
p1063
aS'the person squeezed the juice from an orange and put it into a glass.  .'
p1064
aS'the person entered the kitchen and juiced an orange.  .'
p1065
aS'the person juiced an orange.  .'
p1066
aS'the person juiced an orange and poured it into a glass.  .'
p1067
aS'the person made fresh-squeezed orange juice and then cleaned up after himself.  .'
p1068
aS'the person squeezed an orange and made orange juice.  .'
p1069
aS'the person used a hand-juicer to draw juice from an orange.  .'
p1070
aS'the person prepared a fresh glass of orange juice.  .'
p1071
aS'the person sliced an orange in half and used the slices on a juicer.  .'
p1072
aS'the person came into the kitchen, juiced an orange and cleaned up.  .'
p1073
aS'the person cut and juiced an orange.  .'
p1074
aS'the person made fresh orange juice in a kitchen with an orange.  .'
p1075
aS'the person came into kitchen extracted juice from juicer and did put in a glass.  .'
p1076
aS'the person squeezed and served fresh orange juice.  .'
p1077
aS'the person made orange juice.  .'
p1078
aS'the person made orange juice.  .'
p1079
aS'the person made orange juice.  .'
p1080
aS'the person extracted juice out of an orange.  .'
p1081
aS'the person juiced an orange.  .'
p1082
aS'the person juiced an orange, then cleaned up.  .'
p1083
aS'the person cut two slices of bread from a loaf.  .'
p1084
aS'the person cut a slice of bread.  .'
p1085
aS'the video shows how to cut a slice of bread from a loaf.  .'
p1086
aS'the person walked into the kitchen and slice a piece of bread from a loaf.  .'
p1087
aS'the person sliced bread.  .'
p1088
aS'the person cut himself a slice of bread.  .'
p1089
aS'the person sliced one piece of bread.  .'
p1090
aS'the person cut a slice from a loaf of bread.  .'
p1091
aS'the person sliced one piece of bread from a loaf.  .'
p1092
aS'the person removed a loaf of bread from a refrigerator and cut a slice of bread on a cutting board on a kitchen counter.  .'
p1093
aS'the person cut one slice off of a loaf of bread.  .'
p1094
aS'the person cut a slice of bread from a loaf.  .'
p1095
aS'the person got some bread from a fridge and cut off one slice.  .'
p1096
aS'the person got bread out of the fridge and sliced it.  .'
p1097
aS'the person sliced a loaf of bread on the cutting board.  .'
p1098
aS'the person cut one slice off of a loaf of bread.  .'
p1099
aS'the person cut a piece of bread.  .'
p1100
aS'the person cut a slice of bread.  .'
p1101
aS'the person removed bread from a refrigerator, took it out of the packaging, and sliced a piece.  .'
p1102
aS'the person cut a slice of bread from a loaf.  .'
p1103
aS'the person entered the kitchen and juiced an orange.  .'
p1104
aS'the person prepared an orange juice added with sugar.  .'
p1105
aS'the person made orange juice.  .'
p1106
aS'the person prepared fresh orange juice.  .'
p1107
aS'the person prepared orange juice.  .'
p1108
aS'the person squeezed an orange and added sugar to the juice.  .'
p1109
aS'the person juiced an orange.  .'
p1110
aS'the person juiced an orange and poured the juice into a glass.  .'
p1111
aS'the person juiced an orange.  .'
p1112
aS'the person made orange juice.  .'
p1113
aS'the person squeezed the juice from an orange, and poured the juice, along with a spoonful of sugar into the glass.  .'
p1114
aS'the person made orange juice from an orange with a hand juicer.  .'
p1115
aS'the person made orange juice.  .'
p1116
aS'the person squeezed juice from orange and poured in glass added with sugar.  .'
p1117
aS'the person squeezed an orange and made orange juice.  .'
p1118
aS'the person makes fresh squeezed orange juice.  .'
p1119
aS'the person cut and juiced an orange.  .'
p1120
aS'the person made fresh orange juice.  .'
p1121
aS'the person entered the kitchen, juiced an orange and put it in a glass with some sugar.  .'
p1122
aS'the person made orange juice with sugar.  .'
p1123
aS'the person prepared cauliflower in a covered skillet.  .'
p1124
aS'the person prepared a cauliflower dish.  .'
p1125
aS'the person cut and cooked cauliflower.  .'
p1126
aS'the person prepared cauliflower florets in a skillet.  .'
p1127
aS'the person prepared a dish of creamy cauliflower in sauce with fresh cream and cauliflower florets.  .'
p1128
aS'the person cut a cauliflower into chunks, dipped them into a seasoned milk mixture, and cooked it in a hot pan.  .'
p1129
aS'the person walked into the kitchen and fried a cauliflower.  .'
p1130
aS'the person cooked cauliflower.  .'
p1131
aS'the person cooked cauliflower in front of an audience.  .'
p1132
aS'the person cut, battered, and cooked cauliflower.  .'
p1133
aS'the person cut a cauliflower into small chunks and fried.  .'
p1134
aS'the person cut a cauliflower into florets and cooked it in a pan.  .'
p1135
aS'the person entered a kitchen and cooked some cauliflower.  .'
p1136
aS'the person makes fried cauliflower with cream and spices.  .'
p1137
aS'the person entered the kitchen and cooked cauliflower in a cream sauce.  .'
p1138
aS'the person served fried cauliflower by preparing his own batter and frying batter-dipped cauliflower in a hot skillet.  .'
p1139
aS'the person cooked a creamed cauliflower dish in an oiled frying pan.  .'
p1140
aS'the person steamed cauliflower in milk.  .'
p1141
aS'the person cooked and served cauliflower dipped in batter.  .'
p1142
aS'the person cooked fresh cauliflower in cream sauce.  .'
p1143
aS"the person followed instruction on how to create a fried cauliflower dish that he apparently didn't like.  ."
p1144
aS'the person prepared a buttermilk cauliflower dish on a stove-top.  .'
p1145
aS'the person pan friend some cauliflower.  .'
p1146
aS'the person prepared a meal using cauliflower.  .'
p1147
aS'the person cut, breaded, and cooked cauliflower.  .'
p1148
aS'the person cut the kiwi fruit into 4 pieces.  .'
p1149
aS'the person cut a kiwi.  .'
p1150
aS'the person entered the kitchen and prepared a kiwi fruit to eat.  .'
p1151
aS'the person peeled and sliced up a kiwi fruit.  .'
p1152
aS'the person cut the kiwi fruit into four pieces.  .'
p1153
aS'the person placed the kiwi fruit on the plate and cut it into four pieces.  .'
p1154
aS'the person peeled and sliced a kiwi fruit.  .'
p1155
aS'the person peeled and sliced a kiwi.  .'
p1156
aS'the person peeled and sliced the kiwi.  .'
p1157
aS'the person sliced the kiwi into several pieces.  .'
p1158
aS'the person was cutting a kiwi fruit into pieces.  .'
p1159
aS'the person peeled and sliced a kiwi fruit.  .'
p1160
aS'the person entered the kitchen and cut up a kiwi fruit.  .'
p1161
aS'the person peeled, sliced and plated a piece kiwi fruit.  .'
p1162
aS'the person skinned and sliced a kiwi.  .'
p1163
aS'the person prepared a plate of sliced kiwi fruit.  .'
p1164
aS'the person peeled and sliced kiwi fruit.  .'
p1165
aS'the person cut kiwi fruit.  .'
p1166
aS'the person cut the kiwi fruit into four pieces and placed it on a plate.  .'
p1167
aS'the person cut the kiwi fruit into four pieces and placed on the plate.  .'
p1168
aS'the person came into the kitchen and prepared an avocado.  .'
p1169
aS'the person peeled and cut an avocado.  .'
p1170
aS'the person prepared an avocado.  .'
p1171
aS'the person peeled and sliced an avocado.  .'
p1172
aS'the person sliced an avocado.  .'
p1173
aS'the person peeled, then cut an avocado into slices.  .'
p1174
aS'the person sliced an avocado on a cutting board.  .'
p1175
aS'the person made avocado into pieces.  .'
p1176
aS'the person went into the kitchen and cut up an avocado.  .'
p1177
aS'the person peeled and sliced an avocado.  .'
p1178
aS'the person cut an avocado into small pieces.  .'
p1179
aS'the person cut an avocado into slices.  .'
p1180
aS'the person peeled and cut an avocado vertically into thin strips.  .'
p1181
aS'the person peeled and sliced an avocado.  .'
p1182
aS'the person sliced an avocado into many pieces.  .'
p1183
aS'the person peeled and sliced an avocado.  .'
p1184
aS'the person cut an avocado into slices.  .'
p1185
aS'the person entered the kitchen and sliced an avocado.  .'
p1186
aS'the person entered the kitchen and sliced an avocado.  .'
p1187
aS'the person sliced avocado on a cutting board.  .'
p1188
aS'the person sliced a pineapple into small pieces.  .'
p1189
aS'the person cut a pineapple into bite-sized pieces and sweetened with sugar.  .'
p1190
aS'the person cut a pineapple into pieces and put them in a bowl with water.  .'
p1191
aS'the person chopped pineapple into small piece, added water and salt.  .'
p1192
aS'the person walked into a kitchen, pulled a pineapple out, and cut the skin off, then he cut it into small squares and mixed it with water and a spice in a plastic container.  .'
p1193
aS'the person chopped a pineapple into small chunks, put it in a plastic container and mixed in some water and something else from a small jar.  .'
p1194
aS'the person came into the kitchen and cut a pineapple into chunks.  .'
p1195
aS'the person cut a pineapple into cubes.  .'
p1196
aS'the person prepared and sliced up a pineapple.  .'
p1197
aS'the person skinned and diced a pineapple.  .'
p1198
aS'the person sliced and diced a pineapple.  .'
p1199
aS'the person chopped a pineapple, then added water and seasonings to the tupperware he was going to store it in.  .'
p1200
aS'the person sliced and chunked a pineapple.  .'
p1201
aS'the person walked into the kitchen and sliced a pineapple into cubes.  .'
p1202
aS'the person prepared a whole pineapple by peeling, slicing and giving it more flavor.  .'
p1203
aS'the person chopped up pineapple and salted it.  .'
p1204
aS'the person entered the kitchen and cut a pineapple into chunks.  .'
p1205
aS'the person cubed a pineapple.  .'
p1206
aS'the person prepared a container of sliced pineapple.  .'
p1207
aS'the person cubed a pineapple and added to a container with water and salt.  .'
p1208
aS'the person walked into the kitchen and toasted two slices of bread.  .'
p1209
aS'the person made two slices of toast.  .'
p1210
aS'the person toasted bread in a toaster.  .'
p1211
aS'the fellow in the video toasted two slices of bread.  .'
p1212
aS'the cook toasted the bread.  .'
p1213
aS'the person plated toast he prepared in a toaster.  .'
p1214
aS'the person made toast.  .'
p1215
aS'the person used an electric toaster to show how to properly toast two slices of white bread.  .'
p1216
aS'the person made toast.  .'
p1217
aS'the person took bread a toaster, toasted some bread, put the bread in a plate and put everything back in its place.  .'
p1218
aS'the person toasted two slices of bread in a toaster.  .'
p1219
aS'the person made toast.  .'
p1220
aS'the person found items and prepared toast in a kitchen putting everything back afterwards.  .'
p1221
aS'the cook toasted two pieces of bread in a toaster.  .'
p1222
aS'the person made toast.  .'
p1223
aS'the person toasted bread.  .'
p1224
aS'the person entered the kitchen and toasted two pieces of bread.  .'
p1225
aS'the person toasted two pieces of bread with a toaster.  .'
p1226
aS'the person made two slices of toast using a toaster from the drawer.  .'
p1227
aS'the person made some toast and put it on a plate.  .'
p1228
aS'the person peeled and cut two plums.  .'
p1229
aS'the person cut two plums into slices.  .'
p1230
aS'the person peeled and cut two plums.  .'
p1231
aS'the person peeled and sliced two plums.  .'
p1232
aS'the person sliced up two plums.  .'
p1233
aS'the person walked into the kitchen and cut two peaches.  .'
p1234
aS'the person peeled and cut two plums he got from the fridge.  .'
p1235
aS'the person washed and cut plums.  .'
p1236
aS'the person entered the kitchen and sliced some produce.  .'
p1237
aS'the person peeled and chopped plums.  .'
p1238
aS'the person sliced two plums into pieces.  .'
p1239
aS'the person washed, peeled, and sliced some plums for a meal.  .'
p1240
aS'the person peeled and sliced plums.  .'
p1241
aS'the person entered kitchen and took two plums, peeled it and sliced it.  .'
p1242
aS'the person entered the kitchen and peeled and sliced two pieces of fruit.  .'
p1243
aS'the person entered the kitchen and sliced two plums.  .'
p1244
aS'the person walks into a kitchen, prepares some plums, and eats a piece of the plum.  .'
p1245
aS'the person prepared some plums.  .'
p1246
aS'the person cuts two plums into small pieces.  .'
p1247
aS'the person cooked hot-dogs.  .'
p1248
aS'the person prepared two hot dogs.  .'
p1249
aS'the person cooked two hot dogs, put them each on a bun, and put some condiments on them.  .'
p1250
aS'the person cooked hot-dogs in a kitchen.  .'
p1251
aS'the person cooked hot dogs.  .'
p1252
aS'the person prepared two hotdogs in a kitchen.  .'
p1253
aS'the person walked into the kitchen and made two hot dogs.  .'
p1254
aS'the person prepared two hot-dogs.  .'
p1255
aS'the person prepared hot-dogs with ketchup and mustard.  .'
p1256
aS'the person prepared some hot-dogs.  .'
p1257
aS'the person prepared hot dogs.  .'
p1258
aS'the person boiled two hot dogs on the stove in a covered pot.  .'
p1259
aS'the person prepared two boiled hot-dogs in buns, with condiments.  .'
p1260
aS'the person boiled two hotdogs for a meal.  .'
p1261
aS'the person prepared two hot-dogs.  .'
p1262
aS'the person cooked some hot dogs.  .'
p1263
aS'the person entered the kitchen and cooked some hot dogs.  .'
p1264
aS'the person walked into the kitchen and cooked two hot-dogs.  .'
p1265
aS'the person boiled two hot dogs and served them on buns with mustard and ketchup.  .'
p1266
aS'the person cooked hot-dogs and dressed them with condiments.  .'
p1267
aS'after entering the kitchen,  the person retrieved an onion from a cupboard and thinly sliced the skinned onion.  .'
p1268
aS'the person prepared an onion in the kitchen by slicing it in small pieces.  .'
p1269
aS'the person demonstrated how to slice an onion.  .'
p1270
aS'the person peeled and chopped an onion.  .'
p1271
aS'the person cut two halves of an onion into thin slices.  .'
p1272
aS'how to quickly slice an onion.  .'
p1273
aS'the person entered the kitchen and sliced an onion.  .'
p1274
aS'the person thinly sliced an onion.  .'
p1275
aS'the person washed and chopped an onion into fine pieces.  .'
p1276
aS'the person chopped up an onion.  .'
p1277
aS'how to cut an onion in thin slices.  .'
p1278
aS'the person peeled and chopped an onion.  .'
p1279
aS'the person prepared sliced onions.  .'
p1280
aS'the person finely sliced an onion.  .'
p1281
aS'the person sliced an onion.  .'
p1282
aS'the person chopped an onion on a cutting board.  .'
p1283
aS'the person prepared an onion.  .'
p1284
aS'the person diced an onion.  .'
p1285
aS'the person cut the onion into many pieces.  .'
p1286
aS'the person made orange juice.  .'
p1287
aS'the person juiced an orange and poured it into a glass.  .'
p1288
aS'an orange was used to make orange juice.  .'
p1289
aS'the person made pulpy orange juice.  .'
p1290
aS'the person juiced an orange into orange juice.  .'
p1291
aS'the video demonstrates how to extract juice out of an orange with a manual juicer.  .'
p1292
aS'the person pressed half a glass of orange juice with pulp with a manual juicer.  .'
p1293
aS'the person squeezed an orange and made orange juice.  .'
p1294
aS'the person made orange juice using a juicer in his kitchen.  .'
p1295
aS'the person takes an orange and, using a hand juicer, makes orange juice.  .'
p1296
aS'the person juiced an orange.  .'
p1297
aS'the person juiced an orange.  .'
p1298
aS'the person made fresh orange juice.  .'
p1299
aS'the person retrieved an orange from his refrigerator, rinsed the orange off, and then juiced it.  .'
p1300
aS'the person squeezed the juice out of an orange.  .'
p1301
aS'the person juiced an orange.  .'
p1302
aS'the person juiced an orange.  .'
p1303
aS'the person used a hand juicer to juice one orange and placed the contents in a glass.  .'
p1304
aS'the person made a glass of orange juice from fresh orange by juicer.  .'
p1305
aS'the person entered a kitchen and juiced an orange.  .'
p1306
aS'the person entered the kitchen and brewed some coffee.  .'
p1307
aS'the person walked into the kitchen and make a cup of coffee.  .'
p1308
aS'the person brewed coffee.  .'
p1309
aS'the person made a cup of coffee and added cream and sugar to it.  .'
p1310
aS'the person made coffee.  .'
p1311
aS'the person made coffee.  .'
p1312
aS'the person prepared coffee with sugar and cream.  .'
p1313
aS'the person walked into the kitchen and made a cup of coffee.  .'
p1314
aS'the person made a cup of coffee.  .'
p1315
aS'the person made coffee, added milk and sugar, than cleaned up after himself.  .'
p1316
aS'placed filter, coffee grounds and water into the machine, turn on and waited for the brew cycle to end.  .'
p1317
aS'the person entered a kitchen and prepared himself a cup of coffee with milk and sugar.  .'
p1318
aS'the person brewed a pot of coffee.  .'
p1319
aS'the person prepared a cup of coffee.  .'
p1320
aS'the person entered and prepared coffee.  .'
p1321
aS'the person made some coffee with sugar and creamer.  .'
p1322
aS'the person made coffee in the kitchen.  .'
p1323
aS'the person brewed a mug of coffee with cream and sugar.  .'
p1324
aS'the person made coffee in the kitchen.  .'
p1325
aS'the person made a pot of coffee and fixed himself a cup with sugar and milk.  .'
p1326
aS'the person entered the kitchen and juiced a lime.  .'
p1327
aS'the person remove. the juice from a lime.  .'
p1328
aS'the person walked into the kitchen, cut a lime and juiced it.  .'
p1329
aS'the person juiced a lime using a plastic juicer.  .'
p1330
aS'the person squeezed a lime.  .'
p1331
aS'the person washed a lime, cut it in half, and juiced it with a manual juicer.  .'
p1332
aS'the person juiced a lime.  .'
p1333
aS'the person juiced a lime.  .'
p1334
aS'the video shows how to extract the juice of a lime.  .'
p1335
aS'the person cut a lime in to two halves with a knife and used a juicer to grind the half of the lime to produce juice.  .'
p1336
aS'the person used a blue juicer for fresh lime juice.  .'
p1337
aS'the person washed, prepared, and juiced a lime, and then threw it away.  .'
p1338
aS'the person entered the kitchen and juiced a lime.  .'
p1339
aS'the person juiced a lime.  .'
p1340
aS'the person juiced a lime.  .'
p1341
aS'the person made lime juice.  .'
p1342
aS'the person juiced the lime.  .'
p1343
aS'the person squeezed a lime using a squeezer.  .'
p1344
aS'the person cut and juiced a lime.  .'
p1345
aS'the person juiced a lime.  .'
p1346
aS'the person cut two slices of bread and put them on a plate.  .'
p1347
aS'the person sliced off two slices of bread.  .'
p1348
aS'the person cut two slices from a loaf of bread.  .'
p1349
aS'the person sliced two pieces of bread.  .'
p1350
aS'the person entered into the kitchen and cut two loafs of the bread.  .'
p1351
aS'the person sliced two pieces of bread from a loaf.  .'
p1352
aS'the person sliced bread.  .'
p1353
aS'the person cut two pieces of bread and put them on a plate.  .'
p1354
aS'the person cut two slices of bread from a loaf and placed them on a plate.  .'
p1355
aS'the person entered the kitchen and sliced two pieces of bread.  .'
p1356
aS'the person cut two slices of bread and put them on a plate.  .'
p1357
aS'the person sliced a loaf of bread.  .'
p1358
aS'the person cut two slices of bread from a loaf.  .'
p1359
aS'the person cut a loaf of bread.  .'
p1360
aS'the person walked into a kitchen and sliced up some bread which he placed on a plate.  .'
p1361
aS'the person took a loaf of bread and sliced it.  .'
p1362
aS'the person sliced bread and placed it on the plate.  .'
p1363
aS'the person walked into the kitchen and cut two slices of bread from a loaf.  .'
p1364
aS'the person sliced some bread.  .'
p1365
aS'the person walked into a kitchen so he could cut up a kiwi.  .'
p1366
aS'the person came into kitchen,cut a kiwi fruit into slices & put them in a plate.  .'
p1367
aS'the person sliced a kiwi.  .'
p1368
aS'the person sliced a kiwi and neatly placed it on a plate.  .'
p1369
aS'the person walked into the kitchen, got a kiwi and cut it into slices.  .'
p1370
aS'the person washed and sliced a kiwi.  .'
p1371
aS'the person cut a kiwi into slices.  .'
p1372
aS'the person sliced a kiwi and place it in a plate.  .'
p1373
aS'the person walked into the kitchen and sliced a kiwi.  .'
p1374
aS'the person sliced a kiwi.  .'
p1375
aS'the person sliced the kiwi into several slices.  .'
p1376
aS'the person sliced a kiwi.  .'
p1377
aS'kiwi cut into pieces and served.  .'
p1378
aS'the person slicing a kiwi.  .'
p1379
aS'the person washed and sliced a berry and placed it on a plate.  .'
p1380
aS'the person entered the kitchen and sliced a kiwi.  .'
p1381
aS'the person cut a kiwi into slices.  .'
p1382
aS'the person walked into the kitchen and boiled some pasta.  .'
p1383
aS'the person boiled pasta in a large pot.  .'
p1384
aS'the person made pasta.  .'
p1385
aS'the person entered the kitchen and cooked a pot of pasta.  .'
p1386
aS'the person cooked a plate of pasta.  .'
p1387
aS'the person boiled pasta and plated it.  .'
p1388
aS'the person made pasta, put it on a plate and  cleaned the kitchen.  .'
p1389
aS'the person cooked pasta.  .'
p1390
aS'the person cooked some pasta.  .'
p1391
aS'the person boiled a pot of dried pasta.  .'
p1392
aS'the person prepared a plate of pasta.  .'
p1393
aS'the person prepared pasta.  .'
p1394
aS'the person cooked pasta.  .'
p1395
aS'the person cooked a plate of pasta.  .'
p1396
aS'the person boiled some pasta.  .'
p1397
aS'the person cooked pasta.  .'
p1398
aS'the person entered the kitchen and boiled some pasta.  .'
p1399
aS'the person cooked pasta and put it on a plate.  .'
p1400
aS'the person cooked and strained a dish of pasta.  .'
p1401
aS'the person cooked pasta.  .'
p1402
aS'the person placed two peeled and rinsed potatoes in a pot with salt water to boil.  .'
p1403
aS'the person peeled and chopped potatoes and then added them to a pot of salted water on the stove to boil.  .'
p1404
aS'the person walked into the kitchen and cooked two potatoes.  .'
p1405
aS'the person entered the kitchen, chopped some potatoes, and put them in a pot.  .'
p1406
aS'the person peels and boils potatoes.  .'
p1407
aS'the person prepared potatoes to be boiled.  .'
p1408
aS'the person peeled and prepared potatoes in a pot of water.  .'
p1409
aS'the person peeled two potatoes, cut them and threw them on a hot pot with water and salt.  .'
p1410
aS'the person prepared two potatoes in the kitchen.  .'
p1411
aS'the person quartered two potatoes and put them in a pot on the stove.  .'
p1412
aS'the person peeled and cut potatoes and placed them in a pot to boil.  .'
p1413
aS'the person peeled potatoes, cut them into chunks, and placed them in a pot of water on the stove.  .'
p1414
aS'the person sliced potatoes and put them in a pot.  .'
p1415
aS'the person peeled and cooked potatoes.  .'
p1416
aS'the person cut two potatoes into quarters and put them in a pot to boil.  .'
p1417
aS'the person peeled, cut, and cooked potatoes.  .'
p1418
aS'the person cooked potatoes in a pot with a water and a little salt.  .'
p1419
aS'the video shows how to boil potatoes.  .'
p1420
aS'the person peeled, cut and boiled two potatoes.  .'
p1421
aS'the person cut potatoes to boil.  .'
p1422
aS'the person prepares to boil peeled potatoes with a dash of salt.  .'
p1423
aS'the person put potatoes in a pot on the stove.  .'
p1424
aS'the person cooked potatoes in a pot with water and salt.  .'
p1425
aS'the person chopped two potatoes into large pieces and placed them into a pot of water on the stove.  .'
p1426
aS'the video demonstrates how to peel a kiwi.  .'
p1427
aS'the person peeled and trimmed the ends off of a kiwi.  .'
p1428
aS'the person peeled a kiwi.  .'
p1429
aS'the person entered the kitchen and peeled a kiwi.  .'
p1430
aS'the person peeled a kiwi, rinsed it, and cut off the ends.  .'
p1431
aS'the person peeled, sliced away bad portions, and rinsed off a kiwi.  .'
p1432
aS'the person peeled and cut the ends off of a kiwi.  .'
p1433
aS'the person entered the kitchen and peeled a kiwi.  .'
p1434
aS'the person peeled a kiwi with a potato peeler.  .'
p1435
aS'the person peeled a kiwi.  .'
p1436
aS'the cook peeled a kiwi.  .'
p1437
aS'the person peeled a kiwi.  .'
p1438
aS'the person entered kitchen and grabbed a kiwi then he peeled and washed it.  .'
p1439
aS'the person in the video peeled a kiwi.  .'
p1440
aS'the person peeled a kiwi.  .'
p1441
aS'the person peeled a kiwi fruit using a fruit peeler.  .'
p1442
aS'the person peeled a kiwi.  .'
p1443
aS'the person peeled and sliced a kiwi.  .'
p1444
aS'the person peeled a kiwi.  .'
p1445
aS'the person peeled a kiwi, slowly.  .'
p1446
aS'the person peeled a kiwi.  .'
p1447
aS'the person cooked some leeks in a pan.  .'
p1448
aS'the person prepared a plate of cooked leek.  .'
p1449
aS'the person stir-fried some leeks.  .'
p1450
aS'the person sliced some leek greens and cooked them on the stove.  .'
p1451
aS'the person came in kitchen and he fried a leek leaves in it.  .'
p1452
aS'the person prepared and fried a leek.  .'
p1453
aS'the video shows how to pan fry the greens of a leek.  .'
p1454
aS'the person cooked leeks.  .'
p1455
aS'the person entered the kitchen and cooked a leek.  .'
p1456
aS'the person prepares and cooks finely-chopped leek.  .'
p1457
aS'the person entered a kitchen and cooked a chopped leek.  .'
p1458
aS'the person sauteed leeks.  .'
p1459
aS'the person chopped a leek and fried it in a pan.  .'
p1460
aS'the person cooked small pieces of leek.  .'
p1461
aS'the person entered the kitchen and sauteed some leeks.  .'
p1462
aS'the person chopped leaves of leek and fried in a pan with pepper and salt.  .'
p1463
aS'the person diced and sauteed a leek.  .'
p1464
aS'the person prepared and served leek on a plate.  .'
p1465
aS'the person chopped and sauteed leeks.  .'
p1466
aS'the person sauteed a leek.  .'
p1467
aS'the person prepared sliced raw broccoli on a plate.  .'
p1468
aS'the person cut a head of broccoli into small chunks.  .'
p1469
aS'the person chopped up some broccoli.  .'
p1470
aS'the person cut a head of broccoli into small pieces.  .'
p1471
aS'the person came into kitchen,cleaned and cut broccoli into pieces.  .'
p1472
aS'the person prepared some broccoli and put it on a plate.  .'
p1473
aS'the person went into the kitchen and cut up a head of broccoli.  .'
p1474
aS'the person came into the kitchen and cut up some broccoli, then cleaned up.  .'
p1475
aS'the person sliced up broccoli.  .'
p1476
aS'the person chopped a broccoli.  .'
p1477
aS'the person prepared a plate broccoli.  .'
p1478
aS'the person cut broccoli into small pieces.  .'
p1479
aS'the person cleaned and cut a head of broccoli bite-sized pieces.  .'
p1480
aS'the person cut broccoli.  .'
p1481
aS'the person cleaned and chopped up the broccoli.  .'
p1482
aS'the person chopped up a head of broccoli.  .'
p1483
aS'the person entered the kitchen and cut up a head of broccoli.  .'
p1484
aS'the video shows how to cut up a broccoli into pieces.  .'
p1485
aS'the person cut a head of broccoli into small pieces.  .'
p1486
aS'the person cut some broccoli.  .'
p1487
aS'the person walked into the kitchen to prepare, wash, and cut herbs.  .'
p1488
aS'the person rinsed herbs, then finely chopped them and put them in a small bowl.  .'
p1489
aS'the person chopped herbs.  .'
p1490
aS'the person chopped some herbs.  .'
p1491
aS'the person chopped herbs.  .'
p1492
aS'the person finely chopped herbs and cleaned up after himself.  .'
p1493
aS'the person took some herbs and chopped them into tiny pieces.  .'
p1494
aS'the person chopped some herbs and put them in a bowl.  .'
p1495
aS'the person finely chopped some herbs and put them in a bowl.  .'
p1496
aS'the person prepared herbs for use.  .'
p1497
aS'the person came into the kitchen and prepared food and cleaned up when finished.  .'
p1498
aS'the person washed and chopped some herb leafs.  .'
p1499
aS'the person chopped the herbs finely in the kitchen.  .'
p1500
aS'the person entered the kitchen and chopped some fresh herbs.  .'
p1501
aS'the person entered the kitchen and chopped some herbs.  .'
p1502
aS'the person prepared a bowl of chopped herbs.  .'
p1503
aS'the person rinsed and chopped fresh herbs.  .'
p1504
aS'the person chopped up a bag of herbs.  .'
p1505
aS'the person diced some herbs.  .'
p1506
aS'the person walked into the kitchen and chopped some herbs.  .'
p1507
aS'the person diced onions in a kitchen.  .'
p1508
aS'the person peeled two onions and cut them into small pieces.  .'
p1509
aS'the person chopped up two onions.  .'
p1510
aS'the person diced two onions.  .'
p1511
aS'the person peeled and chopped an onion into small pieces.  .'
p1512
aS'the person peeled and diced an onion.  .'
p1513
aS'the person walked into the kitchen and diced two onions.  .'
p1514
aS'the person entered the kitchen and diced two onions.  .'
p1515
aS'the person peeled and diced two onions.  .'
p1516
aS'the person prepared onions.  .'
p1517
aS'the person chopped onions on a cutting board with a knife.  .'
p1518
aS'the person peeled and sliced onions.  .'
p1519
aS'the person peeled and chopped up an onion.  .'
p1520
aS'the person peeled and sliced two onions.  .'
p1521
aS'the person prepared a plate of chopped onions.  .'
p1522
aS'the person diced onions.  .'
p1523
aS'the person walked into the kitchen and diced two onions.  .'
p1524
aS'the person peeled, halved, and diced two onions in a kitchen.  .'
p1525
aS'the person prepared some onions.  .'
p1526
aS'the person went into the kitchen and sauteed carrots.  .'
p1527
aS'the person entered the kitchen and cooked carrots.  .'
p1528
aS'the person prepared carrots.  .'
p1529
aS'the person entered the kitchen and cooked some chopped carrots.  .'
p1530
aS'the person cut and cooked carrots.  .'
p1531
aS'the person slices and cooks some carrots before cleaning up.  .'
p1532
aS'the person prepared a bowl of cooked carrots.  .'
p1533
aS'the person diced and panfried carrots with seasoning.  .'
p1534
aS'the person cooked carrots.  .'
p1535
aS'the person cooked some carrots.  .'
p1536
aS'the person sliced and chopped two carrots while making a huge mess before sauteeing them in oil.  .'
p1537
aS'the person prepared a dish of sauteed carrots.  .'
p1538
aS'the person came into the kitchen, cooked some carrots and cleaned up.  .'
p1539
aS'the person cooked some carrots with oil and spices in the kitchen.  .'
p1540
aS'the person cooked chopped carrots with oil, salt, and two other ingredients.  .'
p1541
aS'the person cut up and cooked some carrots in oil with seasonings.  .'
p1542
aS'the person sliced and cooked carrots.  .'
p1543
aS'the person walked into the kitchen and cooked two carrots.  .'
p1544
aS'the person cut and sauteed carrot.  .'
p1545
aS'the person sauteed carrots with olive oil and several spices.  .'
p1546
aS'the person made some hotdogs in his kitchen.  .'
p1547
aS'the person cooked some hotdogs.  .'
p1548
aS'the person made hot dogs.  .'
p1549
aS'the person walked into the kitchen, cooked two hot-dogs and put them on rolls.  .'
p1550
aS'the person made hotdogs.  .'
p1551
aS'the person prepared two hot-dogs.  .'
p1552
aS'the person boiled two hot dogs, put them in warmed buns, and added condiments.  .'
p1553
aS'the person plated two hot-dogs with ketchup and mustard.  .'
p1554
aS'the person cooked two hot dogs and put them on buns with ketchup and mustard.  .'
p1555
aS'the person made some hot-dogs.  .'
p1556
aS'the person fixed two hotdogs in the kitchen.  .'
p1557
aS'the person made hot dogs with warm buns, boiled meat, and condiments.  .'
p1558
aS'the person entered the kitchen and cooked some hot dogs.  .'
p1559
aS'the person cooked hot dogs.  .'
p1560
aS'the person entered the kitchen and made two hot dogs.  .'
p1561
aS'the person made hot-dogs.  .'
p1562
aS'the person prepared boiled hot dogs on toasted hot dog buns.  .'
p1563
aS'the person made hotdogs.  .'
p1564
aS'the person demonstrated how to cook hotdogs.  .'
p1565
aS'the person prepared two hot dogs.  .'
p1566
aS'the person chopped an onion.  .'
p1567
aS'the person diced an onion.  .'
p1568
aS'the person entered the kitchen and diced an onion.  .'
p1569
aS'the person walked into a kitchen and peeled a onion.  .'
p1570
aS'the person entered the kitchen and chopped an onion.  .'
p1571
aS'the person diced an onion.  .'
p1572
aS'the person diced onions.  .'
p1573
aS'the person entered the kitchen and used knives to dice an onion.  .'
p1574
aS'the person diced an onion.  .'
p1575
aS'the person peeled and sliced an onion.  .'
p1576
aS'the person peeled and chopped an onion.  .'
p1577
aS'the video shows how to chop up an onion into very fine pieces.  .'
p1578
aS'the person peeled and sliced a onion into pieces.  .'
p1579
aS'the person walked into the kitchen and diced an onion.  .'
p1580
aS'the person peeled and chopped a small onion.  .'
p1581
aS'the person walked into a kitchen and diced an onion using two paring knives.  .'
p1582
aS'the person diced an onion on a cutting board using two different sized-knives.  .'
p1583
aS'the person diced an onion.  .'
p1584
aS'the person peeled and diced an onion.  .'
p1585
aS'the person entered kitchen and chopped the onion.  .'
p1586
aS'the person separated an egg and placed the two parts in separate bowls.  .'
p1587
aS'the person cracked an egg and left the room.  .'
p1588
aS'the person seperated an egg.  .'
p1589
aS'the person cracked an egg.  .'
p1590
aS'the person extracted the egg yolk from the egg to the plate.  .'
p1591
aS'the person separates an egg.  .'
p1592
aS'the person separated an egg.  .'
p1593
aS'the person entered the kitchen and separated an egg.  .'
p1594
aS'the person separated the white and yellow yolk from the egg into the bowl.  .'
p1595
aS'the person cracked an egg and separated the white from the yolk.  .'
p1596
aS'the person separated an egg.  .'
p1597
aS'the person entered the kitchen and separated an egg yolk from the white on a plate.  .'
p1598
aS'the person cracked open an egg.  .'
p1599
aS'the person placed the egg yolk onto two plates.  .'
p1600
aS'the person extracted the egg yolk from the egg to the plate.  .'
p1601
aS'the person separated an egg yolk and white.  .'
p1602
aS'the person cracked and egg and separated the yolk and whites into two separate bowls.  .'
p1603
aS'the person separated an egg.  .'
p1604
aS'the person extracted the egg yolk from the egg to the plate.  .'
p1605
aS'the person extracted the egg yolk from the egg to the plate.  .'
p1606
aS'the person sliced a chili into small pieces.  .'
p1607
aS'the person chopped up a chilli pepper.  .'
p1608
aS'the person diced a chili pepper.  .'
p1609
aS'the person chopped a chili pepper.  .'
p1610
aS'the person entered the kitchen and diced a chili.  .'
p1611
aS'the person chopped a chili into small pieces.  .'
p1612
aS'the person chopped up a chili.  .'
p1613
aS'the person sliced a chili into fine slices.  .'
p1614
aS'the person entered the kitchen and sliced a chilli.  .'
p1615
aS'the person walked into the kitchen and chopped up a chili pepper.  .'
p1616
aS'the person walked into a kitchen and chopped a chili pepper using a knife and chopping board.  .'
p1617
aS'the person chopped a chili into small pieces with a knife and threw away the stem.  .'
p1618
aS'the person chopped up a chili pepper into small pieces.  .'
p1619
aS'the person sliced a chili pepper into small pieces.  .'
p1620
aS'the person sliced a pepper.  .'
p1621
aS'the video shows how to chop up a chilli into very small pieces.  .'
p1622
aS'the person came into the kitchen and finely chopped a red chili pepper.  .'
p1623
aS'the person chopped a chili pepper.  .'
p1624
aS'the person chopped a chilli pepper on a cutting board.  .'
p1625
aS'the person entered the kitchen and diced an onion.  .'
p1626
aS'the person peeled and cut an onion with a knife.  .'
p1627
aS'the person entered the kitchen and chopped an onion.  .'
p1628
aS'the person prepared an onion.  .'
p1629
aS'the person prepared a small plate of sliced onions.  .'
p1630
aS'the person prepared onions.  .'
p1631
aS'the person peeled and chopped an onion.  .'
p1632
aS'the person chopped an onion and placed it on a plate.  .'
p1633
aS'the person chopped up the onion.  .'
p1634
aS'the person diced an onion.  .'
p1635
aS'the person prepared an onion by dicing and peeling it.  .'
p1636
aS'the person diced an onion.  .'
p1637
aS'the person chopped an onion.  .'
p1638
aS'the person walked into the kitchen, chopped an onion and put it onto a plate.  .'
p1639
aS'the person chopped an onion and put it on a plate.  .'
p1640
aS'the person peeled and cut an onion.  .'
p1641
aS'the person cut up an onion.  .'
p1642
aS'the person cut a small onion into pieces.  .'
p1643
aS'the person peeled and chopped an onion into small pieces.  .'
p1644
aS'the person peeled an onion and put it on a plate.  .'
p1645
aS'the person separated an egg into two cups.  .'
p1646
aS'the person separated the egg yolk and egg white into two cups, then threw away the shell and washed his hands.  .'
p1647
aS'the person separated an egg yolk from the white.  .'
p1648
aS'the person separated an egg white from yolk and put them in separate cups.  .'
p1649
aS'the person separated an egg into yolk and white.  .'
p1650
aS'the person separated the egg white from the yolk of an egg.  .'
p1651
aS'the person walked into a kitchen and cracked eggs into containers then washed his hands.  .'
p1652
aS'the person separated the yolk and egg whites of an egg into two cups.  .'
p1653
aS'the person separated an egg.  .'
p1654
aS'the person separated the white from the yolk of an egg into two small white bowls.  .'
p1655
aS'the person separated an egg yolk from the egg white.  .'
p1656
aS'the person separated an egg white from its yolk.  .'
p1657
aS'the person came into the kitchen and cracked an egg into two mugs, separating the egg white and yolk into two separate mugs.  .'
p1658
aS'the person walked into the kitchen and separated an egg.  .'
p1659
aS'the person separated an egg and placed the yolk and whites in separate cups.  .'
p1660
aS'the person cracked an egg and collected egg white and egg yolk in 2 different cups.  .'
p1661
aS'the person separated an egg.  .'
p1662
aS'the person entered the kitchen and separated the yolk and white of an egg.  .'
p1663
aS'the person placed egg yolk in a cup.  .'
p1664
aS'the person separated yolk and egg white into two mugs.  .'
p1665
aS'toasting two slices of bread.  .'
p1666
aS'the person walked into the kitchen and toasted two slices of bread.  .'
p1667
aS'the person toasted two slices of bread.  .'
p1668
aS'the person toasted two slices of bread in a toaster and put it on a plate.  .'
p1669
aS'the person toasted bread.  .'
p1670
aS'the person toasted bread with a toaster and placed it on a plate.  .'
p1671
aS'the person made toast in a toaster.  .'
p1672
aS'the person made toast in a toaster.  .'
p1673
aS'the person toasted bread with a toaster.  .'
p1674
aS'the person toasted two pieces of toast and put them on a plate.  .'
p1675
aS'the person toasted bread.  .'
p1676
aS'the person entered the kitchen and toasted two pieces of bread.  .'
p1677
aS'the person toasted two pieces of bread.  .'
p1678
aS'a young the person went to the kitchen and made two perfectly golden pieces of toast.  .'
p1679
aS'the person toasted bread.  .'
p1680
aS'the person toasted two slices of bread.  .'
p1681
aS'the person toasted bread using a toaster.  .'
p1682
aS'the video contained the operation process involved in toasting bread with an electric toaster.  .'
p1683
aS'the person prepared two slices of toast.  .'
p1684
aS'the person used a toaster to toast two slices of bread, and placed the toasted slices on a plate.  .'
p1685
aS'the person cooked pasta.  .'
p1686
aS'the person boiled and drained pasta.  .'
p1687
aS'the person cooked pasta.  .'
p1688
aS'the person entered the kitchen and cooked some pasta.  .'
p1689
aS'the person cooked pasta.  .'
p1690
aS'the person boiled, rinsed, and drained some dry pasta.  .'
p1691
aS'the person boiled pasta in a pot of water and drained it in a colander, rinsed it and poured it on a plate.  .'
p1692
aS'the person cooked some pasta, strained the water out of it, and put it on a plate.  .'
p1693
aS'the person walked into the kitchen and cooked a pot of pasta.  .'
p1694
aS'the person cooked some pasta.  .'
p1695
aS'the person prepared and plated boiled pasta.  .'
p1696
aS'the person prepared a plate of cooked pasta.  .'
p1697
aS'the person made pasta in the kitchen.  .'
p1698
aS'the person made pasta.  .'
p1699
aS'the person prepared a plate of boiled pasta.  .'
p1700
aS'the person cooked a pot of pasta.  .'
p1701
aS'the person cooked pasta.  .'
p1702
aS'the person cooked the pasta in the kitchen.  .'
p1703
aS'the person prepared some pasta.  .'
p1704
aS'the person cooked some pasta.  .'
p1705
aS'the person prepared vegetables and presented them on a plate.  .'
p1706
aS'the person washed, prepared, and chopped beans.  .'
p1707
aS'the person entered the kitchen and sliced some snap peas.  .'
p1708
aS'the person entered the kitchen and sliced some snap peas.  .'
p1709
aS'the person demonstrated how to cut beans.  .'
p1710
aS'the person that walked in the kitchen and chopped some beans.  .'
p1711
aS'the person sliced some beans.  .'
p1712
aS'the person washed and cut beans.  .'
p1713
aS'the person sliced beans.  .'
p1714
aS'the person walked into the kitchen and chopped some green beans.  .'
p1715
aS'the person sliced beans.  .'
p1716
aS'the person prepared a simple dish of beans.  .'
p1717
aS'the person rinsed some beans, cut off the ends, and chopped them into small pieces for a meal.  .'
p1718
aS'the person chopped up several bean pods.  .'
p1719
aS'the person diced bean pods.  .'
p1720
aS'the person chopped up about 11 pods of green beans in a kitchen.  .'
p1721
aS'the person prepared beans and placed them on a plate.  .'
p1722
aS'the person sliced beans into small pieces.  .'
p1723
aS'the person washed and diced green beans.  .'
p1724
aS'the person entered kitchen and grabbed a pack of beans from refrigerator and chopped it.  .'
p1725
aS'the person prepared some green beans.  .'
p1726
aS'the person prepared some potatoes.  .'
p1727
aS'the person walked into the kitchen and peeled and cubed two potatoes.  .'
p1728
aS'the person peeled, washed and cut 2 potatoes.  .'
p1729
aS'the person entered a kitchen, peeled and rinsed two potatoes and subsequently diced them into a stainless steel bowl.  .'
p1730
aS'the person entered the kitchen and peeled potatoes, afterwards he cleaned up after herself.  .'
p1731
aS'the person washed, peeled and cut two potatoes into cubes.  .'
p1732
aS'the person prepared two potatoes.  .'
p1733
aS'the person peeled and cut up potatoes.  .'
p1734
aS'the person cut potatoes into pieces.  .'
p1735
aS'the person peeled and cut potatoes.  .'
p1736
aS'the person peeled and cut potatoes.  .'
p1737
aS'the person peeled and diced two potatoes.  .'
p1738
aS'the person peeled and chopped two potatoes.  .'
p1739
aS'the person peeled and sliced the potatoes.  .'
p1740
aS'the person entered the kitchen and peeled and cubed potatoes.  .'
p1741
aS'the person entered kitche, took two potatoes and diced it.  .'
p1742
aS'the person peeled and sliced two potatoes.  .'
p1743
aS'the person peeled and chopped potatoes, then cleaned up.  .'
p1744
aS'the person peeled two potatoes and cut them into large pieces.  .'
p1745
aS'the person grabbed a piece of fruit, cut it, and then placed it on a plate.  .'
p1746
aS'the person entered the kitchen and cut a fig into four pieces.  .'
p1747
aS'the person cut up a fig.  .'
p1748
aS'the person chose and prepared a piece of fruit in a kitchen.  .'
p1749
aS'the person sliced a vegetable into four pieces.  .'
p1750
aS'the person chopped a fig into small pieces.  .'
p1751
aS'the person cut a small piece of fruit into fourths.  .'
p1752
aS'the person cut a fig into four pieces.  .'
p1753
aS'the person entered the kitchen and sliced a fig into quarters.  .'
p1754
aS'with just a cutting board, small plate, paring knife and a fresh fig  the person created a quick, quartered fig fruit snack.  .'
p1755
aS'the person washed and cut a fig before putting the pieces on a plate.  .'
p1756
aS'the person entered the kitchen and sliced a piece of produce.  .'
p1757
aS'the person entered the kitchen and cut a fig.  .'
p1758
aS'the person walked into the kitchen and sliced a fig.  .'
p1759
aS'the person cut a fig into four pieces and plated the pieces.  .'
p1760
aS'the person washed, quartered, and arranged a fig onto a plate.  .'
p1761
aS'the person sliced a fig.  .'
p1762
aS'the cook cut up and vegetable and arranged a few pieces of it on a plate.  .'
p1763
aS'the person cut a piece of fruit into quarters and placed them decoratively on a plate.  .'
p1764
aS'the person sliced up fruit, and placed it on the plate.  .'
p1765
aS'the person cut a leek into small pieces and put the pieces into a bowl.  .'
p1766
aS'the person chopped the leek finely into small pieces and transferred to a bowl.  .'
p1767
aS'the person rinsed and chopped up a leek.  .'
p1768
aS'the person sliced a leek.  .'
p1769
aS'the person thinly sliced a fresh leek.  .'
p1770
aS'the person prepared a meal with leek.  .'
p1771
aS'the person prepared sliced leek and placed it in a bowl.  .'
p1772
aS'the person chopped a leek.  .'
p1773
aS'the person entered the kitchen and prepared a leek.  .'
p1774
aS'the person cleaned and sliced a leek.  .'
p1775
aS'the person cleaned and sliced leeks.  .'
p1776
aS'the video depicted  the person entering a kitchen and slicing a leek.  .'
p1777
aS'the cook in this video demonstrated how to properly clean and chop a leek.  .'
p1778
aS'the person chopped the leek finely into small pieces and transferred to a bowl.  .'
p1779
aS'the person entered the kitchen and sliced a leek.  .'
p1780
aS'the person sliced the leek into small pieces.  .'
p1781
aS'the person prepared a leek.  .'
p1782
aS'the person cleaned and chopped a leek.  .'
p1783
aS'the person washed and diced a leek.  .'
p1784
aS'the person demonstrated how to slice a leek.  .'
p1785
aS'the person prepared a cucumber.  .'
p1786
aS'the person chopped the cucumber into pieces.  .'
p1787
aS'the person chopped a cucumber.  .'
p1788
aS'the person went into the kitchen and diced a cucumber on a cutting board.  .'
p1789
aS'the person washed and chopped a cucumber.  .'
p1790
aS'the person sliced the cucumber into many pieces.  .'
p1791
aS'the person entered the kitchen and diced a cucumber.  .'
p1792
aS'the person cut a cucumber into small pieces.  .'
p1793
aS'the person once cut a cucumber into pieces.  .'
p1794
aS'the person chopped the cucumber into pieces.  .'
p1795
aS'the person washed and cut up a cucumber.  .'
p1796
aS'the person diced a cucumber.  .'
p1797
aS'the person sliced a cucumber on a cutting board.  .'
p1798
aS'the person diced a cucumber.  .'
p1799
aS'the person sliced a cucumber into small pieces.  .'
p1800
aS'the person chopped a cucumber.  .'
p1801
aS'the person sliced a cucumber on a cutting board.  .'
p1802
aS'the person cut up a cucumber.  .'
p1803
aS'the person sliced a cucumber into cubes.  .'
p1804
aS'the person cut up a cucumber into chunks.  .'
p1805
aS'the person thinly sliced a cucumber.  .'
p1806
aS'the person sliced a cucumber.  .'
p1807
aS'the person prepared a cucumber.  .'
p1808
aS'the person diced a cucumber.  .'
p1809
aS'the person entered the kitchen and chopped a cucumber.  .'
p1810
aS'the person sliced a cucumber.  .'
p1811
aS'the person sliced a cucumber.  .'
p1812
aS'the person walked into the kitchen, sliced a cucumber and cleaned up the mess.  .'
p1813
aS'the person sliced a cucumber in the kitchen.  .'
p1814
aS'the person chopped up a cucumber and put it on a plate.  .'
p1815
aS'the person chopped the cucumber into small pieces.  .'
p1816
aS'the person cut a clean cucumber into thin slices and put it on a plate before tidying up.  .'
p1817
aS'the person sliced a cucumber.  .'
p1818
aS'the person sliced a cucumber in half, then sliced it into sections, then placed the sections onto a plate.  .'
p1819
aS'the person cut up a cucumber into pieces.  .'
p1820
aS'the person sliced a cucumber and set it on a plate.  .'
p1821
aS'the person sliced a cucumber with a knife in a kitchen.  .'
p1822
aS'the person finely sliced a cucumber.  .'
p1823
aS'the person chopped a cucumber into pieces.  .'
p1824
aS'the person chopped some herbs.  .'
p1825
aS'the person chopped some herb leafs.  .'
p1826
aS'the person prepared some herbs.  .'
p1827
aS'the person cut leaves from a potted plant, and washed and chopped them.  .'
p1828
aS'the person went into the kitchen to prepare the herbs.  .'
p1829
aS'the person washed and diced herbs.  .'
p1830
aS'the person finely chopped fresh herbs.  .'
p1831
aS'the person washed and cut herbs.  .'
p1832
aS'the person entered the kitchen and sliced some herbs.  .'
p1833
aS'the person cut up some herbs.  .'
p1834
aS'the person prepared a small bowl of chopped herbs.  .'
p1835
aS'the person diced and plated some herbs.  .'
p1836
aS'the person cut some fresh herbs from a potted plant and then diced them.  .'
p1837
aS'the person prepared a plate of herbs.  .'
p1838
aS'the person prepared some herbs in the kitchen by chopping them very finely.  .'
p1839
aS'the person walked into the kitchen and chopped some herbs.  .'
p1840
aS'the person chopped herbs.  .'
p1841
aS'the person prepared herbs.  .'
p1842
aS'the person diced herbs.  .'
p1843
aS'the person chopped some fresh herbs.  .'
p1844
aS'the person entered the kitchen to chop a carrot.  .'
p1845
aS'the person entered the kitchen and diced a carrot.  .'
p1846
aS'the person entered the kitchen and chopped a carrot.  .'
p1847
aS'the person sliced a carrot and placed it into a bowl.  .'
p1848
aS'the person peeled and chopped a carrot.  .'
p1849
aS'the person prepared a carrot by cutting it in small pieces.  .'
p1850
aS'the person prepared a carrot.  .'
p1851
aS'the person prepared a bowl of sliced carrots.  .'
p1852
aS'the person showed us how to dice a small carrot.  .'
p1853
aS'the person peeled and chopped a carrot.  .'
p1854
aS'the person peeled and diced a carrot.  .'
p1855
aS'the person cut a carrot with a knife.  .'
p1856
aS'the person washed and diced a carrot.  .'
p1857
aS'the person prepared diced, skinless carrot and put it in a bowl.  .'
p1858
aS'the person cleaned and chopped a carrot, then put the pieces in a bowl.  .'
p1859
aS'the person shaved and chopped a carrot into small pieces.  .'
p1860
aS'the person sliced the carrot into small pieces.  .'
p1861
aS'the person walked into the kitchen, cut a carrot and put it in a bowl.  .'
p1862
aS'the person chopped up a carrot.  .'
p1863
aS'the person diced a carrot in the kitchen.  .'
p1864
aS'the person prepared an omelette.  .'
p1865
aS'the person prepared a cheese omelette.  .'
p1866
aS'the person cooked eggs.  .'
p1867
aS'the person prepared an omelette from two eggs, spices, and cheese.  .'
p1868
aS'the person made a pastry with two eggs and another ingredient.  .'
p1869
aS'the person made an egg omelet with spices and cheese.  .'
p1870
aS'the person cooked an omelette.  .'
p1871
aS'the person went into the kitchen and made an omelet.  .'
p1872
aS'the person cooked and served a 2 egg omelet.  .'
p1873
aS'the person made an egg and cheese omelet.  .'
p1874
aS'the person entered the kitchen, cooked a cheese omelet and cleaned up.  .'
p1875
aS'the person made an omelet.  .'
p1876
aS'the person used two eggs to make an omelette.  .'
p1877
aS'the person prepared an omelette.  .'
p1878
aS'the person entered the kitchen and made a cheese omelette.  .'
p1879
aS'the person entered the kitchen and cooked an omelette.  .'
p1880
aS'the person cooked an omelette with two eggs.  .'
p1881
aS'the person cooked an omelet with cheese.  .'
p1882
aS'the person made an omelet.  .'
p1883
aS'the person made a two egg cheese omelette in a buttered frying pan.  .'
p1884
aS'a young the person toasted two slices of bread.  .'
p1885
aS'the person entered the kitchen and toasted two pieces of bread.  .'
p1886
aS'the person made toast.  .'
p1887
aS'the person toasted two bread slices with a toaster in the kitchen.  .'
p1888
aS'the person toasted bread.  .'
p1889
aS'the person toasted two slices of bread in a toaster.  .'
p1890
aS'the person used a toaster to make toast.  .'
p1891
aS'the person used a toaster to make toast.  .'
p1892
aS'the person made a sandwich.  .'
p1893
aS'the person made toast in a toaster.  .'
p1894
aS'the person toasted two pieces of toast and placed them on a plate.  .'
p1895
aS'the person toasted 2 slices of bread and put them on a plate using a set of tongs.  .'
p1896
aS'the person made toast.  .'
p1897
aS'the person toasted some bread with a toaster.  .'
p1898
aS'the person toasted two slices of bread and took them out the toaster with a pair of tongs.  .'
p1899
aS'the person made toast.  .'
p1900
aS'the person prepared toast using a toaster.  .'
p1901
aS'the person made toast, then washed the utensils and put them back.  .'
p1902
aS'the person made toast in the kitchen.  .'
p1903
aS'the person made toast.  .'
p1904
aS'the person cut two peppers and placed them on a plate.  .'
p1905
aS'the person prepared dice chili and put it on a plate.  .'
p1906
aS'the person cut two chili peppers into small pieces and put the pieces on a plate.  .'
p1907
aS'the person washed and sliced chili.  .'
p1908
aS'the person sliced chilli peppers.  .'
p1909
aS'the person came and took chillies then he made chillies into pieces.  .'
p1910
aS'the person entered the kitchen and sliced two chilies into small pieces.  .'
p1911
aS'the person came into the kitchen and cut up some chili peppers, then cleaned up after herself.  .'
p1912
aS'the person cut two chilies in small pieces.  .'
p1913
aS'the person prepared a small plate of sliced chilli peppers.  .'
p1914
aS'the person sliced two chilies.  .'
p1915
aS'the person sliced two chili peppers into pieces.  .'
p1916
aS'the person cut up two chilies and put the on a plate.  .'
p1917
aS'the person cut two pieces of chili into small pieces.  .'
p1918
aS'the person chopped chilies.  .'
p1919
aS'the person diced two chili peppers.  .'
p1920
aS'the person sliced two chilli peppers into rings, using a knife.  .'
p1921
aS'the person chopped up two chili peppers in the kitchen.  .'
p1922
aS'the person cut up two chillies and put them on a plate.  .'
p1923
aS'the person chops peppers crosswise.  .'
p1924
aS'the person chopped up a mango on a cutting board.  .'
p1925
aS'the person entered the kitchen, got a mango and cut it up to put on a plate.  .'
p1926
aS'the person peeled and chopped a mango.  .'
p1927
aS'the person plated a mango after preparing it by dicing and seasoning it.  .'
p1928
aS'the person peeled, sliced and cut a mango into small pieces, rinsed some dishes and threw away the waste.  .'
p1929
aS'the person sliced a mango into pieces.  .'
p1930
aS'the person entered the kitchen and diced a mango.  .'
p1931
aS'the person cut a mango into squares and seasoned it.  .'
p1932
aS'the person cut up a mango and seasoned it a bit.  .'
p1933
aS'the person went into the kitchen and took out an apple, a chopping board and a knife and proceeded to cut the apple mango into cube like sizes and placed them on a plate.  .'
p1934
aS'the person diced a mango into around one centimeter thick squares.  .'
p1935
aS'the person cuts a mango into pieces and then seasons it.  .'
p1936
aS'the person chopped a mango into pieces.  .'
p1937
aS'the person went into the kitchen and cut up a mango.  .'
p1938
aS'the person butchered a mango before seasoning it and serving it.  .'
p1939
aS'the person made a plate of sliced mango.  .'
p1940
aS'the person chopped a mango.  .'
p1941
aS'the person entered the kitchen and chopped a mango.  .'
p1942
aS'the person cut a mango in small pieces.  .'
p1943
aS'the person diced a mango.  .'
p1944
aS'the person chopped herbs.  .'
p1945
aS'the person finely minced some varied herbs.  .'
p1946
aS'the person sliced herbs and placed them in a bowl.  .'
p1947
aS'the person put some herbs in a bowl after dicing them.  .'
p1948
aS'the person finely chopped two different types of herbs.  .'
p1949
aS'the person chopped up some herbs.  .'
p1950
aS'the person peeled and sliced a piece of fruit, then cleaned up after herself.  .'
p1951
aS'the person cut and mixed some herbs.  .'
p1952
aS'the person came into the kitchen and chopped up some herbs into a bowl.  .'
p1953
aS'the person chopped up two types of herbs into a bowl.  .'
p1954
aS'the person finely cuts up a mix of herbs.  .'
p1955
aS'the person rinsed, prepared, and chopped herbs, and then cleaned up after himself.  .'
p1956
aS'the person cleaned and chopped two herb different herbs.  .'
p1957
aS'the person cut up some kale leaves with chives.  .'
p1958
aS'the person chopped up herbs.  .'
p1959
aS'the person entered the kitchen and chopped some herbs.  .'
p1960
aS'the person walked into the kitchen and chopped some herbs.  .'
p1961
aS'the person chopped cilantro and chive together and placed them into a bowl.  .'
p1962
aS'the person prepared a bowl of sliced herbs.  .'
p1963
aS'the person diced herbs.  .'
p1964
aS'the person chopped some broccoli, cooked it and then heated butter in a skillet.  .'
p1965
aS'the person cut up broccoli in his kitchen, boiled it, and melted some butter on his stove.  .'
p1966
aS'the person boiled broccoli and melted some butter in a pan.  .'
p1967
aS'the person cut a fresh head of broccoli into florets and boiled them.  .'
p1968
aS'the person cooked broccoli in a pot of water, and melted butter in a pan.  .'
p1969
aS'the person came into the kitchen to cook some broccoli.  .'
p1970
aS'the person steamed some broccoli and melted some butter on the stove.  .'
p1971
aS'the person prepared broccoli several ways.  .'
p1972
aS'the cook placed pieces of broccoli into a pot of water to cook then prepares to fry the cooked broccoli in butter.  .'
p1973
aS'the person cut up and cooked broccoli.  .'
p1974
aS'the person prepared broccoli with melted butter.  .'
p1975
aS'the person boiled and cooked broccoli.  .'
p1976
aS'the person prepared and cooked broccoli.  .'
p1977
aS'the person prepared some broccoli and cooked it.  .'
p1978
aS'the person entered the kitchen and boiled some broccoli.  .'
p1979
aS'the person cooked some broccoli and butter.  .'
p1980
aS'the person prepared cooked broccoli.  .'
p1981
aS'the person blanched some broccoli.  .'
p1982
aS'the person cooked broccoli.  .'
p1983
aS'the person chopped and prepared broccoli in a very nice kitchen.  .'
p1984
aS'the person chopped up a red bell pepper into small pieces.  .'
p1985
aS'the person cut a pepper into small pieces and put them on a plate.  .'
p1986
aS'the person cut a pepper into small pieces.  .'
p1987
aS'the person entered the kitchen and diced a pepper.  .'
p1988
aS'the person cut a pepper into chunks.  .'
p1989
aS'the person chopped up a red pepper on a kitchen counter.  .'
p1990
aS'the person cuts up a pepper.  .'
p1991
aS'the person diced a red pepper.  .'
p1992
aS'the person entered the kitchen and diced a pepper.  .'
p1993
aS'the person deseeded and diced a pepper.  .'
p1994
aS'the person diced a pepper.  .'
p1995
aS'the person diced a red pepper.  .'
p1996
aS'how to slice and dice a red peper.  .'
p1997
aS'the person prepared a pepper and placed the slices on the plate.  .'
p1998
aS'the person diced a red pepper.  .'
p1999
aS'the person chopped a pepper.  .'
p2000
aS'the person came into the kitchen and cut up a red pepper, then put it on a plate.  .'
p2001
aS'the person took a pepper from the fridge and diced it.  .'
p2002
aS'the person cut and diced a red pepper and placed the dish onto a plate once he was finished.  .'
p2003
aS'the person sliced a pepper into small pieces.  .'
p2004
aS'the person entered the kitchen and brewed coffee in a coffee maker.  .'
p2005
aS'the person brewed a cup of coffee.  .'
p2006
aS'the person made a cup of coffee.  .'
p2007
aS'the person brewed coffee.  .'
p2008
aS'the person used a coffee maker, a coffee filter, a package of coffee grounds, a cup, some sugar, and a milk container to prepare a cup of coffee which he mixed with sugar and milk.  .'
p2009
aS'the person demonstrated how to make coffee with a coffee pot.  .'
p2010
aS'the person brewed a pot of coffee.  .'
p2011
aS'the person made coffee.  .'
p2012
aS'the person brewed coffee.  .'
p2013
aS'the person entered the kitchen and made some coffee.  .'
p2014
aS'the person brewed and prepared himself a cup of coffee.  .'
p2015
aS'the person brewed some coffee and poured it into a cup with cream and sugar.  .'
p2016
aS'the person made coffee.  .'
p2017
aS'the person made coffee.  .'
p2018
aS'the person prepared a cup of coffee.  .'
p2019
aS'the person prepared coffee with cream and sugar.  .'
p2020
aS'the person poured himself a cup of coffee.  .'
p2021
aS'the person is making coffee.  .'
p2022
aS'the person made himself a cup of coffee with sugar and cream.  .'
p2023
aS'the person made some coffee with sugar and creamer.  .'
p2024
aS'the person prepared fresh orange juice.  .'
p2025
aS'the person made orange juice using an orange, water, and sugar.  .'
p2026
aS'the person made orange juice using a squeezer and some sugar.  .'
p2027
aS'the person made orange juice.  .'
p2028
aS'the person cut and juiced an orange.  .'
p2029
aS'the person made orange juice with sugar and water added.  .'
p2030
aS'the person made orange juice.  .'
p2031
aS'the person made orange juice from a freshly-squeezed orange.  .'
p2032
aS'the person came into the kitchen and made orange juice from scratch.  .'
p2033
aS'the person prepared a glass of fresh orange juice.  .'
p2034
aS'the person entered the kitchen and made a glass of orange juice.  .'
p2035
aS'the person walked into the kitchen and squeezed a glass of orange juice.  .'
p2036
aS'the person made some fresh squeezed orange juice, then added water and sugar.  .'
p2037
aS'the person juiced an orange and sweetened the juice to drink.  .'
p2038
aS'the person used a reamer to make some orange juice.  .'
p2039
aS'the person squeezed an orange and made orange juice.  .'
p2040
aS'the person made fresh orange juice.  .'
p2041
aS'the person made orange juice.  .'
p2042
aS'the person made fresh orange juice.  .'
p2043
aS'the person sliced the orange in half and twisted it over the juicer.  .'
p2044
aS'the person sliced a leek and put it on to boil.  .'
p2045
aS'the person prepared a leek to be cooked.  .'
p2046
aS'the person boiled sliced long green onion with a little salt.  .'
p2047
aS'the person prepared some leeks.  .'
p2048
aS'the person entered the kitchen and prepared some sliced leek.  .'
p2049
aS'the person sliced a large vegetable into pieces and placed them in a pot of water.  .'
p2050
aS'the person diced and cooked a diced leek.  .'
p2051
aS'the person boiled a vegetable in a pot.  .'
p2052
aS'the person boiled a leek he had sliced into small pieces.  .'
p2053
aS'the person cut a leek into pieces and put it in a pot of water to boil.  .'
p2054
aS'the person sliced a leek and put it in a pot on the stove.  .'
p2055
aS'the video shows  the person preparing and cooking a scallion.  .'
p2056
aS'the person walked into the kitchen and cooked a vegetable.  .'
p2057
aS'the person sliced a leek and boiled it.  .'
p2058
aS'the person prepares and boils a leek in salt water.  .'
p2059
aS'the person began cooking a leek by cutting the white stalk into thin slices and added them to a saucepan with water in it on the stove.  .'
p2060
aS'the person came into a kitchen, cut up the stalk of a leek and set it to cook.  .'
p2061
aS'the cook sliced a leek and placed them into a pot of water on the stove.  .'
p2062
aS'the person prepared fried potatoes in a saute pan, salted them and served with ketchup.  .'
p2063
aS'the person diced and fried potatoes.  .'
p2064
aS'the person panfryed potatoes and seasoned with ketchup and salt.  .'
p2065
aS'the person prepared a plate of fried potatoes with ketchup and salt.  .'
p2066
aS'the person fried two potatoes.  .'
p2067
aS'the person pan-fried potatoes to serve up with ketchup.  .'
p2068
aS'the person entered the kitchen, sliced potatoes and cooked them.  .'
p2069
aS'the person made home fries.  .'
p2070
aS'the person walked into the kitchen and fried some potatos.  .'
p2071
aS'the person cooked potatoes on the stove.  .'
p2072
aS'the person fried potatoes.  .'
p2073
aS'the person cooked sliced potatoes with oil.  .'
p2074
aS'the person cooked potatoes.  .'
p2075
aS'the person made fries in a skillet.  .'
p2076
aS'the person sauteed a potato.  .'
p2077
aS'the person chopped up and cooked chip size potato pieces in a pan of oil.  .'
p2078
aS'the person cooked home fries.  .'
p2079
aS'the person prepared a plate of fried potatoes.  .'
p2080
aS'the person entered the kitchen and cooked some potatoes.  .'
p2081
aS'the person chopped three strings of green beans.  .'
p2082
aS'the person prepared beans for cooking by trimming them and cutting them up.  .'
p2083
aS'the person trimmed and then sliced flat beans into small pieces.  .'
p2084
aS'the person sliced the beans into small pieces.  .'
p2085
aS'the person cut large green beans into little pieces.  .'
p2086
aS'the person came and cut the beans into very small pieces.  .'
p2087
aS'the person washed, prepared, and sliced up four bean pods.  .'
p2088
aS'the video shows how to cut beans.  .'
p2089
aS'the person took beans and he chopped the beans into thin strips with paring knife.  .'
p2090
aS'the person entered the kitchen and sliced some snap peas into small pieces.  .'
p2091
aS'the person chopped up bean pods.  .'
p2092
aS'the person sliced beans on a cutting board.  .'
p2093
aS'the person cleaned and sliced four long green beans.  .'
p2094
aS'the person washed and diced green beans.  .'
p2095
aS'the person sliced four beans.  .'
p2096
aS'the person walked into a kitchen and chopped up some string beans into fine pieces.  .'
p2097
aS'the person used a knife to dice the beans on a cutting board.  .'
p2098
aS'the person diced beans into tiny pieces on a cutting board.  .'
p2099
aS'the person chopped beans with a lot of concentration.  .'
p2100
aS'the person walked into the kitchen, got some beans and cut them into small pieces.  .'
p2101
aS'the person juiced a lime.  .'
p2102
aS'the person walked into the kitchen and juiced a lime.  .'
p2103
aS'the person juiced a lime.  .'
p2104
aS'the person cut a lime in halves and squeezed it with a lemon squeezer.  .'
p2105
aS'the person entered kitchen and squeezed lime juice using juicer.  .'
p2106
aS'the person juiced a lime.  .'
p2107
aS'the person juiced a lime.  .'
p2108
aS'the person juiced a lime.  .'
p2109
aS'the person pressed the lime onto the juicer.  .'
p2110
aS'the person tried to extract lime juice using a citrus juicer.  .'
p2111
aS'the person used a hand juicer to juice a lime.  .'
p2112
aS'the person attempted to juice a lime in a kitchen, but he was unsuccessful and gave up.  .'
p2113
aS'the person juiced a lime.  .'
p2114
aS'the person tried to juice a lime and was unable to get much juice from the lime.  .'
p2115
aS'the person juiced a lime by hand.  .'
p2116
aS'the person entered a kitchen and juiced a lime.  .'
p2117
aS'the person squeezed a greeen lemon.  .'
p2118
aS'the person juiced the lime.  .'
p2119
aS'the person juiced a lime.  .'
p2120
aS'the person juiced a lime and then rinsed his hands.  .'
p2121
aS'the person juiced one fresh lime.  .'
p2122
aS'the person cut a lime in half and juiced it.  .'
p2123
aS'the person cut a lime in half with a knife and then juiced each half over a white juicer.  .'
p2124
aS'the person made coffee.  .'
p2125
aS'the person was making a wonderful coffee with a coffee-maker.  .'
p2126
aS'the person made a cup of coffee.  .'
p2127
aS'the person brewed coffee.  .'
p2128
aS'the person prepared a pot of coffee.  .'
p2129
aS'the person demonstrated how to brew coffee with sugar.  .'
p2130
aS'the person brewed coffee.  .'
p2131
aS'the person prepared a cup of coffee using a standard coffee maker.  .'
p2132
aS'the person made coffee.  .'
p2133
aS'the person entered the kitchen and made some coffee.  .'
p2134
aS'the person prepared a cup of coffee with sugar.  .'
p2135
aS'the person went to make his a cup of coffee.  .'
p2136
aS'the person made coffee.  .'
p2137
aS'the person began to make coffee.  .'
p2138
aS'the person walked into the kitchen and made a cup of coffee.  .'
p2139
aS'the person prepared coffee with sugar and poured it in a cup.  .'
p2140
aS'the person made coffee.  .'
p2141
aS'the person prepared a cup of coffee.  .'
p2142
aS'the person made some coffee.  .'
p2143
aS'the person made a pot of coffee and poured it in a cup and mixed it with sugar.  .'
p2144
aS'the person cut and cooked raw broccoli.  .'
p2145
aS'the person cooked broccoli florets and placed them on a plate.  .'
p2146
aS'the person cooked some broccoli with seasonings.  .'
p2147
aS'the person boiled broccoli and then placed the broccoli on a plate.  .'
p2148
aS'the person boiled broccoli florets with salt and seasoning.  .'
p2149
aS'the person cleaned and cooked broccoli.  .'
p2150
aS'the person boiled broccoli florets.  .'
p2151
aS'the person cooked broccoli.  .'
p2152
aS'the person chopped some broccoli, boiled it, and put it on a plate.  .'
p2153
aS'the person boiled broccoli pieces with salt and spices and strained them onto a plate.  .'
p2154
aS'the person demonstrated how to cut and cook broccoli.  .'
p2155
aS'the person cooked fresh broccoli in boiled water.  .'
p2156
aS'the person boiled broccoli pieces in a pot of seasoned water on the stove.  .'
p2157
aS'the person steamed broccoli.  .'
p2158
aS'the person walked into the kitchen and cooked some broccoli.  .'
p2159
aS'the person cooked broccoli.  .'
p2160
aS'the person prepared some broccoli.  .'
p2161
aS'the person entered the kitchen and cooked some broccoli.  .'
p2162
aS'the person trims and boils some broccoli.  .'
p2163
aS'the person cooked broccoli on a stovetop.  .'
p2164
aS'the person deseeded a pomegranate.  .'
p2165
aS'the person cut and de-seeded a pomegranate.  .'
p2166
aS'the person removed the pulp and seeds of a pomegranate into a bowl.  .'
p2167
aS'the person removed seeds from some fruit.  .'
p2168
aS'the person prepared a pomegranate by taking the seeds out.  .'
p2169
aS'the person peeled a pomegranate for its seeds.  .'
p2170
aS'the person removed the seeds from the pomegranate.  .'
p2171
aS'the person prepared a pomegranate and placed it in a bowl.  .'
p2172
aS'the person separated the fruit of a pomegranate from the husk.  .'
p2173
aS'this video had filmed  the person preparing a pomegranate in a bowl.  .'
p2174
aS'the person cut open and seeded a pomegranate.  .'
p2175
aS'the person seeded a pomegranate and discarded the pieces and washed his hands after he finished.  .'
p2176
aS'the person removed the seeds from a pomegranate.  .'
p2177
aS'the person peeled a vegetable and placed the seeds into a bowl.  .'
p2178
aS'the person walked into the kitchen cut a pomegranate and put the seeds in a bowl.  .'
p2179
aS"the person took out a fruit, peeled and cut it, and finally placed the fruit's insides into a bowl before he disposed of the trash and the mess.  ."
p2180
aS'the person removed the seeds from a pomegranate.  .'
p2181
aS'the person walked into the kitchen and seeded a pomegranate.  .'
p2182
aS'the person cut and collected seeds of a pomegranate into a bowl.  .'
p2183
aS'the person separated egg whites from the egg yolk into two glasses.  .'
p2184
aS'the person separated an egg.  .'
p2185
aS'the person separated the egg yolk from the egg white.  .'
p2186
aS'the person entered the kitchen and used two glasses to separate an egg.  .'
p2187
aS'the person cracked an egg on a beer mug, and after pouring the yolk juice into it he placed the yolk into a smaller glass and threw the shell in the trash.  .'
p2188
aS'the person separated egg whites and yolk from one egg, and placed them in two different glass cups.  .'
p2189
aS'the person cracked an egg, pouring the egg whites in one glass and the yolk in another.  .'
p2190
aS'the person walked into the kitchen and separated an egg.  .'
p2191
aS'the person walked into the kitchen and separated an egg.  .'
p2192
aS"the person separated an egg's yoke from its white.  ."
p2193
aS'the person separated the egg-yolk from the egg-white.  .'
p2194
aS'the person separated the egg, putting the yolk in one glass and the white in the other glass.  .'
p2195
aS'the person poured egg yolk and whites into two classes.  .'
p2196
aS'the person cracked an egg and separated the yolk from the white.  .'
p2197
aS'the person separated the egg whites and egg yolk.  .'
p2198
aS'the person separated the yolk of an egg from the white.  .'
p2199
aS'the person separated the white from the yolk.  .'
p2200
aS'the person cracked an egg and separated the whites and yolk in two cups.  .'
p2201
aS'the person separated an egg.  .'
p2202
aS'the person separated an egg white from the yolk.  .'
p2203
aS'the person sliced up and fried an onion.  .'
p2204
aS'the person entered chopped an onion and cooked it in a pan with vegetable oil.  .'
p2205
aS'the person chopped an onion into fine pieces and cooked them in a pan with oil.  .'
p2206
aS'how to saute an onion.  .'
p2207
aS'the person fried the chopped onion in a pan with oil.  .'
p2208
aS'the person walked into the kitchen and cooked an onion.  .'
p2209
aS'the person diced an onion and cooked it in oil.  .'
p2210
aS'the person cooked a diced onion.  .'
p2211
aS'the person diced and sauteed an onion.  .'
p2212
aS'the person chopped and fried an onion.  .'
p2213
aS'the person sauteed an onion.  .'
p2214
aS'the person cooked an onion.  .'
p2215
aS'the person sauteed a diced onion.  .'
p2216
aS'the person chopped the onion and fried it till it became brown.  .'
p2217
aS'the person fried a chopped onion.  .'
p2218
aS'the person prepared fried onions.  .'
p2219
aS'the person diced and sauteed an onion in a kitchen.  .'
p2220
aS'the person entered the kitchen, diced and fried an onion.  .'
p2221
aS'the person sauteed a diced onion.  .'
p2222
aS'the person fried onions in a skillet.  .'
p2223
aS'the person sliced a chili into small pieces.  .'
p2224
aS'the person sliced a chilli pepper.  .'
p2225
aS'the person chopped a chilli into small pieces.  .'
p2226
aS'the person entered the kitchen and sliced a pepper into small pieces.  .'
p2227
aS'the person sliced a chili.  .'
p2228
aS'the person rinsed a chilli and sliced it into small pieces for a meal.  .'
p2229
aS'the person took the red chilly from the refrigerator, then placed it on a wooden plate and cut it with the knife into very small pieces.  .'
p2230
aS'the person diced a chili pepper.  .'
p2231
aS'the person cleaned and then cut a red pepper into thin, round slices.  .'
p2232
aS'the person chops a chill into small pieces.  .'
p2233
aS'the person chopped a chilli pepper.  .'
p2234
aS'the person cut a chili pepper.  .'
p2235
aS'the person chops up a chilli pepper.  .'
p2236
aS'the person chopped up a jalapeno.  .'
p2237
aS'the person got a red chili pepper and cut it up.  .'
p2238
aS"here's a video of  the person who prepared a chili pepper for cooking chili.  ."
p2239
aS'the person diced a chili pepper.  .'
p2240
aS'the person sliced a chilli.  .'
p2241
aS'the person found, washed and thinly sliced a red chili pepper.  .'
p2242
aS'the person diced a chilli pepper.  .'
p2243
aS'the person diced a chilli pepper.  .'
p2244
aS'the person washed and finely sliced a pepper.  .'
p2245
aS'the person chopped a chile.  .'
p2246
aS'a chili pepper was removed from a refrigerator and placed on a cutting board to be chopped into fine pieces.  .'
p2247
aS'the person rinsed the chili pepper off and then sliced it.  .'
p2248
aS'the person cooked two eggs.  .'
p2249
aS'the person fried two eggs.  .'
p2250
aS'the person made scrambled brown eggs with salt and pepper in a large frying pan coated with cooking oil.  .'
p2251
aS'the person tried to make a round egg omelet.  .'
p2252
aS'the person cooked an omelet.  .'
p2253
aS'the person entered the kitchen and tried to cook an omelet, then cleaned up.  .'
p2254
aS'the person cooked some eggs.  .'
p2255
aS'the person cooked some eggs.  .'
p2256
aS'the person fried two eggs.  .'
p2257
aS'the person walked into the kitchen and cooked two eggs.  .'
p2258
aS'the person entered the kitchen and cooked some whipped eggs.  .'
p2259
aS'the person made eggs.  .'
p2260
aS'the person beat some eggs with salt before cooking them in a pan with oil.  .'
p2261
aS'the person prepared an omelet with seasonings in a skillet, and cleaned a spatula and metal bowl.  .'
p2262
aS'the person made some scrambled eggs.  .'
p2263
aS'the person cooked eggs.  .'
p2264
aS'the person prepared an omelette with two eggs.  .'
p2265
aS'the person prepared seasoned eggs in a pan.  .'
p2266
aS'the person made some scrambled eggs and cleaned up afterwards.  .'
p2267
aS'the person cooked some hot dogs.  .'
p2268
aS'the person boiled two hot dogs and dressed them with mustard, ketchup, onion, and relish.  .'
p2269
aS'the person prepared hot dogs to eat.  .'
p2270
aS'the person made two hot dogs on buns with four kinds of condiments.  .'
p2271
aS'the person prepared two hot dogs for dinner.  .'
p2272
aS'the person cooked and prepared hot dogs.  .'
p2273
aS'the person boiled two hot dogs, put condiments on the buns, then put the hot dogs on the buns.  .'
p2274
aS'the person cooked hot dogs.  .'
p2275
aS'the person made hot dogs.  .'
p2276
aS'the person cooked hotdogs.  .'
p2277
aS"the person prepared hot dog buns fully dressed and boiled hot dogs, but didn't serve them.  ."
p2278
aS'the person walked into the kitchen and prepared two hot dogs.  .'
p2279
aS'the person cooked two hot-dogs.  .'
p2280
aS'the person prepared two hot-dogs.  .'
p2281
aS'the person made two hot dogs.  .'
p2282
aS'the person made two hot dogs.  .'
p2283
aS'the person cooked hot dogs.  .'
p2284
aS'the person prepared two hot-dogs.  .'
p2285
aS'the person came into the kitchen, cooked two hot-dogs and put them on rolls.  .'
p2286
aS'the person entered the kitchen and cooked some hot dogs.  .'
p2287
aS'the person walked into the kitchen and cooked an egg.  .'
p2288
aS'the person cooked an egg with seasonings and oil.  .'
p2289
aS'the person cooked a scrambled egg.  .'
p2290
aS'the person came into the kitchen and made scrambled eggs.  .'
p2291
aS'making of omlet.  .'
p2292
aS'the person cooked a scrambled egg on a frying pan and garnished it.  .'
p2293
aS'the person cooked an omelette.  .'
p2294
aS'the person fried a beaten egg in a skillet.  .'
p2295
aS'the person cooked a beaten egg and placed it on a plate.  .'
p2296
aS'the person made a simple omelet with salt, pepper, and plant sprinkles.  .'
p2297
aS'the person prepared and cooked an egg.  .'
p2298
aS'the person fried an egg.  .'
p2299
aS'the person cooked a scrambled egg in a pan.  .'
p2300
aS'the person attempts to make an omelet.  .'
p2301
aS'the person cooked an egg in a skillet.  .'
p2302
aS'the person cooked an egg concoction in a pan on the stove.  .'
p2303
aS'the person cooked a egg.  .'
p2304
aS'the person entered a kitchen and cooked an egg.  .'
p2305
aS'the person cooked an egg.  .'
p2306
aS'the person cooked an egg.  .'
p2307
aS'the person cut and pulled a plum apart to remove the seed.  .'
p2308
aS'the person separated a plum from the seed.  .'
p2309
aS'how to easily remove the pit of a small fruit.  .'
p2310
aS'the person cut and deseeded a plum.  .'
p2311
aS'the person split a plum into four pieces.  .'
p2312
aS'the person used a knife to peel a plum.  .'
p2313
aS'the person cut open a plum and discarded the pit.  .'
p2314
aS'the person removed the pit from a plum.  .'
p2315
aS'the person removed the seed from a plum.  .'
p2316
aS'the person cut a plum.  .'
p2317
aS'the person entered the kitchen and had difficulty removing the pit from a plum.  .'
p2318
aS'the person prepared a plum.  .'
p2319
aS'the person removed the pit that was in a plum.  .'
p2320
aS'the person cut a plum into little pieces.  .'
p2321
aS'the person cut the plum in the kitchen.  .'
p2322
aS'the person entered the kitchen and removed a pit from a plum.  .'
p2323
aS'a young the person cuts a plum into four different parts, removing the pit.  .'
p2324
aS'the person went into the kitchen and cut a plum.  .'
p2325
aS'the person sliced a small fruit.  .'
p2326
aS'the person removed the pit from a plum.  .'
p2327
aS'the person chopped up an herb and placed it on the plate.  .'
p2328
aS'the person cut herbs into small pieces.  .'
p2329
aS'the person finely chopped up some herbs.  .'
p2330
aS'the person chopped herbs.  .'
p2331
aS'the person chops freshly picked herbs.  .'
p2332
aS'the person chopped up some herbs and placed them on a small plate.  .'
p2333
aS'the person picked and cut up some chives.  .'
p2334
aS'how to dice an herb and transfer it.  .'
p2335
aS'the person chopped an herb into small pieces and put it on a small plate.  .'
p2336
aS'the person chopped herbs.  .'
p2337
aS'the person sliced some herbs into small pieces, and put them on a plate.  .'
p2338
aS'the person chopped the fresh herbs.  .'
p2339
aS'the person diced some herbs.  .'
p2340
aS'the person picked fresh herbs from his indoor garden, chopped them on a cutting board and then transferred them to a small plate.  .'
p2341
aS'healthy herbs.  .'
p2342
aS'the person entered the kitchen and diced some fresh herbs.  .'
p2343
aS'the person chopped some fresh herbs and placed them on a plate.  .'
p2344
aS'the person picked and chopped fresh herbs.  .'
p2345
aS'the person made herbs into small pieces.  .'
p2346
aS'the person chopped herbs.  .'
p2347
aS'the person cut up some herbs in a kitchen.  .'
p2348
aS'the person chopped herbs and put them on a plate.  .'
p2349
aS'the person chopped two different kinds of herbs.  .'
p2350
aS'the person entered the kitchen and cut up some herbs.  .'
p2351
aS'the person cleaned and chopped herbs.  .'
p2352
aS'the person chopped herbs.  .'
p2353
aS'the person went into the kitchen and chopped up some herbs.  .'
p2354
aS'the person picked two kinds of herbs, washed and cut them in to small pieces.  .'
p2355
aS'the person chopped up two different types of herbs.  .'
p2356
aS'the person chopped some herbs.  .'
p2357
aS'the person sliced vegetables using a knife and then placed them onto a plate.  .'
p2358
aS'the person sliced herbs and put the pieces on the plate.  .'
p2359
aS'the person chopped herbs.  .'
p2360
aS'the person chopped up two separate herb leafs and placed them in a bowl.  .'
p2361
aS'the person chopped up two types of herb, and put them on a plate.  .'
p2362
aS'the person washed and diced herbs.  .'
p2363
aS'the person entered the kitchen and cut up two different herbs and put them on a plate.  .'
p2364
aS'the person diced two types of herbs, and placed them on a plate.  .'
p2365
aS'the person entered into the kitchen and cut the washed herbs and green onion into small pieces.  .'
p2366
aS'the person chopped up two different kinds of herbs and separated them.  .'
p2367
aS'the person prepared an avocado.  .'
p2368
aS'the person peeled and cut an avocado.  .'
p2369
aS'the person pitted, peeled, and chopped an avocado.  .'
p2370
aS'the person entered the kitchen and peeled and sliced an avocado.  .'
p2371
aS'the person chops up an avocado into smaller pieces.  .'
p2372
aS'the person cut an avocado in to chunks.  .'
p2373
aS'the person peeled and sliced an avocado for a meal.  .'
p2374
aS'the person depitted, peeled, and sliced an avocado.  .'
p2375
aS'the person entered the kitchen and diced an avocado.  .'
p2376
aS'the person cut up an avocado.  .'
p2377
aS'the person cut, peeled, and diced an avocado.  .'
p2378
aS'the person entered the kitchen and sliced an avocado.  .'
p2379
aS'the person prepared sliced avocado.  .'
p2380
aS'the person prepares an avocado to be eaten.  .'
p2381
aS'the person prepares an avocado.  .'
p2382
aS'the person sliced the avocado into small pieces.  .'
p2383
aS'the person cut an avocado into small pieces and put them on a plate.  .'
p2384
aS'the person sliced up an avocado in small pieces.  .'
p2385
aS'the person sliced an avocado into strips.  .'
p2386
aS'the person entered the kitchen and cut an avocado into small chunks.  .'
p2387
aS'the person cut, pitted and peeled an avocado and then cut further into smaller segments.  .'
p2388
aS'the person peeled and sliced an avocado.  .'
p2389
aS'the person peeled and sliced a avocado.  .'
p2390
aS'the person cut a piece of ginger into smaller slices.  .'
p2391
aS'the person used a knife to thinly chop and prepare a piece of ginger.  .'
p2392
aS'the person cut a piece of ginger into small slices.  .'
p2393
aS'the person entered the kitchen and sliced fresh ginger.  .'
p2394
aS'the person sliced some ginger into small slices.  .'
p2395
aS'the person sliced a piece of ginger into small pieces.  .'
p2396
aS'the person sliced the ginger into small pieces.  .'
p2397
aS'the person sliced a portion of a clove of ginger.  .'
p2398
aS'the person entered the kitchen and sliced a piece of ginger.  .'
p2399
aS'the person minced a small piece of ginger.  .'
p2400
aS'the person cut a piece of ginger in a kitchen.  .'
p2401
aS'the person had cut a piece of ginger.  .'
p2402
aS'the person cut up some root ginger into small slices.  .'
p2403
aS'the person sliced a piece of ginger root.  .'
p2404
aS'the person sliced a small piece of ginger into smaller pieces.  .'
p2405
aS'the person sliced a chunk of ginger into smaller pieces.  .'
p2406
aS'the person came into the kitchen and cut some ginger.  .'
p2407
aS'the person cut up a small section of a ginger root.  .'
p2408
aS'the person sliced a piece of ginger.  .'
p2409
aS'the person sliced to pieces of bread from a loaf.  .'
p2410
aS'the person cut two slices from the bread.  .'
p2411
aS'the person cut two slices of bread from a loaf he took from a cabinet.  .'
p2412
aS'the person sliced two slices of bread from a loaf.  .'
p2413
aS'the person sliced some bread in the kitchen.  .'
p2414
aS'the person sliced some bread.  .'
p2415
aS'the person sliced two pieces off of a loaf of bread.  .'
p2416
aS'the young the person cut two slices of bread with a bread knife.  .'
p2417
aS'this video showed  the person slice two pieces of bread out of an uncut loaf.  .'
p2418
aS'the person sliced two pieces of bread.  .'
p2419
aS'the person entered the kitchen and sliced some bread.  .'
p2420
aS'the person cut two slices of bread from the loaf.  .'
p2421
aS'the person sliced a loaf of bread.  .'
p2422
aS'the person sliced two pieces of bread.  .'
p2423
aS'the person cut two slices of bread.  .'
p2424
aS'the person cut two slices off a loaf of bread and put the bread back in the pantry.  .'
p2425
aS'the person sliced bread.  .'
p2426
aS'the person used a bread board, a six inch loaf of bread, and a bread knife to produce two slices of bread approximately one half inch thick each.  .'
p2427
aS'the person sliced two pieces of bread from a loaf of bread.  .'
p2428
aS'the person slices bread.  .'
p2429
aS'the person got a fig, sliced it and arranged it on a plate.  .'
p2430
aS'the person sliced a fig up and placed it on a plate.  .'
p2431
aS'the person arranged the sliced fig on a plate.  .'
p2432
aS'the person prepared a plate of sliced figs.  .'
p2433
aS'the person walked into the kitchen and sliced a fig.  .'
p2434
aS'the person sliced a fig into pieces.  .'
p2435
aS'the person went into the kitchen and cut figs.  .'
p2436
aS'the person washed and cut a fig.  .'
p2437
aS'the person rinsed and sliced a fig, arranging the slices carefully on a plate.  .'
p2438
aS'the person cut a fig into slices.  .'
p2439
aS'the person sliced a fig and arranged it on a plate.  .'
p2440
aS'the person cut a fig into thin slices.  .'
p2441
aS'the person sliced a fig and arranged it on a plate.  .'
p2442
aS'the person prepared a vegetable.  .'
p2443
aS'the person cut up a fig and put it on a plate to be served.  .'
p2444
aS'the person sliced a fig.  .'
p2445
aS'the person sliced a fig and arranged it on a plate.  .'
p2446
aS'the person walked into the kitchen, sliced a fig and cleaned the utensils.  .'
p2447
aS'the person sliced a fig and put the sliced fruit onto a plate.  .'
p2448
aS'the person cut a fig and put it on a plate.  .'
p2449
aS'the person peeled the skin of fig and cut into pieces.  .'
p2450
aS'the person entered the kitchen and sliced a fig into small pieces.  .'
p2451
aS'the person prepared a small bowl of sliced figs.  .'
p2452
aS'the person plated some fig after preparing it.  .'
p2453
aS'the person sliced a fig.  .'
p2454
aS'the person peeled and sliced a fig.  .'
p2455
aS'the person peeled and sliced a fig.  .'
p2456
aS'the person peeled and sliced a fig.  .'
p2457
aS'the cook peeled and sliced a pear.  .'
p2458
aS'the person sliced a fig into four pieces.  .'
p2459
aS'the person peeled and sliced a fig.  .'
p2460
aS'the person washed, peeled, and sliced a fig.  .'
p2461
aS'the person peeled and sliced a fig.  .'
p2462
aS'the person prepared a fig.  .'
p2463
aS'the person prepared a fig and placed it on the plate.  .'
p2464
aS'the person entered the kitchen and sliced a fig.  .'
p2465
aS'the video shows how to cut up a fresh fig.  .'
p2466
aS'the person peeled and sliced a fig.  .'
p2467
aS'the person peeled and sliced a fig.  .'
p2468
aS'the person cut a fig into thin slices.  .'
p2469
aS'the person used a reamer to extract juice from a lime in a kitchen.  .'
p2470
aS'the person juiced a lime.  .'
p2471
aS'the person walked into the kitchen and juiced a lime.  .'
p2472
aS'the person squeezed the juice out of a lime with a juicer.  .'
p2473
aS'the person juiced a lime.  .'
p2474
aS'the person cut and juiced a lime.  .'
p2475
aS'the person squeezed the juice out of a lime using a juicer.  .'
p2476
aS'the person squeezed a lime with a manual juicer.  .'
p2477
aS'the person juiced a lime.  .'
p2478
aS'lime juice was extracted from a lime.  .'
p2479
aS'the person cut and juiced a lime.  .'
p2480
aS'the person squeezed juice from half of a lime.  .'
p2481
aS'the person juiced a lime.  .'
p2482
aS'the person juiced a lime.  .'
p2483
aS'the person is making fresh lime juice with one lime.  .'
p2484
aS'the person made lime juice.  .'
p2485
aS'the person made lime juice.  .'
p2486
aS'the person juiced a lime.  .'
p2487
aS'the person peeled and sliced a kiwi.  .'
p2488
aS'the person strolled into a kitchen and sliced up a kiwi.  .'
p2489
aS'the person peeled and sliced a kiwi.  .'
p2490
aS'the person entered a kitchen, took a kiwi, washed it, peeled it, sliced it, put it on a serving plate, and cleaned the rtensils.  .'
p2491
aS'the person prepared a plate of sliced kiwi.  .'
p2492
aS'the person entered the kitchen and sliced a kiwi.  .'
p2493
aS'the person sliced a kiwi.  .'
p2494
aS'the person peeled and sliced a kiwi.  .'
p2495
aS'the person peeled and sliced a kiwi then set it on a plate.  .'
p2496
aS'the person walked into the kitchen and sliced a kiwi.  .'
p2497
aS'the person slices a kiwi.  .'
p2498
aS'the person peeled and sliced a kiwi.  .'
p2499
aS'the person peeled a kiwi and cut it into slices.  .'
p2500
aS'the person sliced a kiwi.  .'
p2501
aS'the person sliced a kiwi fruit.  .'
p2502
aS'the person peeled and sliced a kiwi.  .'
p2503
aS'the person sliced a kiwi fruit on a cutting board.  .'
p2504
aS'the person entered the kitchen and sliced a kiwi.  .'
p2505
aS'the person entered the kitchen, then peeled and cut a kiwi.  .'
p2506
aS'how to remove the skin and slice a kiwi fruit.  .'
p2507
aS'the person prepared a bowl of pasta.  .'
p2508
aS'the person entered the kitchen and cooked some pasta.  .'
p2509
aS'the person boiled pasta and placed it in a bowl.  .'
p2510
aS'the person entered the kitchen and cooked a pot of pasta.  .'
p2511
aS'the person prepared pasta.  .'
p2512
aS'the person took forever to boil pasta and then he served it in a bowl.  .'
p2513
aS'the person cooked some pasta and poured it into a bowl.  .'
p2514
aS'the person walked into the kitchen and cooked some pasta.  .'
p2515
aS'the person cooked a bag of dry pasta in a pot of boiling water, drained the water using a colander, and transferred the cooked pasta to a serving bowl.  .'
p2516
aS'the person prepared a bowl of boiled pasta.  .'
p2517
aS'the person cooked pasta.  .'
p2518
aS'the person cooked some pasta.  .'
p2519
aS'the person cooked a bowl of pasta.  .'
p2520
aS'the person prepared a bowl of pasta.  .'
p2521
aS'a young the person went into the kitchen and prepared a dish of noodles on the stove.  .'
p2522
aS'this unknown oriental the person entered an unknown kitchen, prepared pasta with a few unknown ingredients, then when he was finished, he stood there looking around with a pertubed look.  .'
p2523
aS'the person prepared pasta.  .'
p2524
aS'the person made hot dogs.  .'
p2525
aS'the person cooked a meal.  .'
p2526
aS'the person made pasta.  .'
p2527
aS'the person pan fried potatoes.  .'
p2528
aS'the person wanted something to eat so he fixed himself some food.  .'
p2529
aS'the person cooked potatoes.  .'
p2530
aS'the person prepared fried potatoes.  .'
p2531
aS'the person cooked some potatoes.  .'
p2532
aS'there was the person who was cooking the potato dish there.  .'
p2533
aS'the person cooked some diced potatoes by boiling them briefly then frying them in some oil and seasoning.  .'
p2534
aS'the person dices up two potatoes, then steams them for a few minutes, then he fries them up and serves them in a bowl.  .'
p2535
aS'the person prepared potatoes by cutting them, boiling them, then cooking them in a frying pan.  .'
p2536
aS'the person diced, boiled and sauteed two potatoes with spices.  .'
p2537
aS'the person boiled two diced potatoes in a pot with salt for 2 minutes, then fried the drained potatoes in an oiled pan with salt, pepper and chili powder for 5 minutes.  .'
p2538
aS'the person cooked diced potatoes.  .'
p2539
aS'the person cooking potatoes.  .'
p2540
aS'the person entered the kitchen, diced a potato and cooked it.  .'
p2541
aS'the person boiled and fried potatoes.  .'
p2542
aS'the person cooked home fries in a skillet.  .'
p2543
aS'the person entered the kitchen and prepared to boil some potatoes and fried them instead.  .'
p2544
aS'the person diced, boiled, and fried a potato.  .'
p2545
aS'the person made home fries.  .'
p2546
aS'the person peeled an orange with a knife.  .'
p2547
aS'the person entered a kitchen and peeled an orange.  .'
p2548
aS'the person walked into the kitchen and peeled an orange.  .'
p2549
aS'the person entered the kitchen and peeled an orange with a knife.  .'
p2550
aS'the person took an orange, peeled the skin and divided into slices.  .'
p2551
aS'the person peeled and made four pieces of an orange.  .'
p2552
aS'the person split the orange into fourths.  .'
p2553
aS'the person peeled an orange from the fridge with a knife, then broke it into segments and threw away the peel.  .'
p2554
aS'the person peeled and separated an orange into sections.  .'
p2555
aS'the person prepared a orange onto a white plate.  .'
p2556
aS'the person entered the kitchen and peeled an orange.  .'
p2557
aS'the person peeled and broke apart an orange.  .'
p2558
aS'the person prepared an orange.  .'
p2559
aS'the person entered into kitchen and peeled orange and made it to several pieces.  .'
p2560
aS'the person wen into the kitchen and peeled an orange.  .'
p2561
aS'the person peeled an orange.  .'
p2562
aS'the person peeled and quartered an orange.  .'
p2563
aS'the person peeled, sectioned and cut and orange into small pieces and put them in a bowl and then sprinkled them with sugar, topping it all off with milk.  .'
p2564
aS'the person peeled an orange and separated the slices onto a plate.  .'
p2565
aS'the person peeled and separated an orange.  .'
p2566
aS'the person cooked pasta then washed dishes.  .'
p2567
aS'the person entered the kitchen and boiled some pasta.  .'
p2568
aS'the person came into the kitchen and cooked some pasta.  .'
p2569
aS'the person made pasta.  .'
p2570
aS'the person prepared pasta by cooking it on the stove.  .'
p2571
aS'the person prepared boiled pasta.  .'
p2572
aS'the person cooked pasta.  .'
p2573
aS'the person boiled dried pasta in a pan of salted water.  .'
p2574
aS'the person cooked pasta.  .'
p2575
aS'the person cooked some pasta.  .'
p2576
aS'the person used a pot, a package of pasta, a strainer, a bowl, some water, a heating source, and some salt to prepare pasta which he then strained with water and placed into a bowl.  .'
p2577
aS'the person cooked, rinsed, and strained pasta and than cleaned the pot that he used.  .'
p2578
aS'the person made pasta.  .'
p2579
aS'the person cooked pasta in a kitchen.  .'
p2580
aS'the person cooked pasta on a stove, drained it and poured it in a bowl.  .'
p2581
aS'the person cooked a bowl of pasta.  .'
p2582
aS'the person cooked pasta.  .'
p2583
aS'the person walked into the kitchen and cooked a pot of pasta.  .'
p2584
aS'the person cooked pasta.  .'
p2585
aS'the person prepared a bowl of cooked pasta.  .'
p2586
aS'the person in the kitchen cut spring onion into pieces and kept the left leaves in the fridge.  .'
p2587
aS'the person displays to us how to prepare fresh cut herbs for a variety of cooking dishes.  .'
p2588
aS'the person diced thin, green vegetables.  .'
p2589
aS'the person sliced some chives.  .'
p2590
aS'the person chopped herbs.  .'
p2591
aS'the person grabbed a knife and cutting board, chopped herbs, and then put the herbs back in the refrigerator.  .'
p2592
aS'the person sliced some fresh herbs.  .'
p2593
aS'the person diced fresh chives on a cutting board.  .'
p2594
aS'the person cut what appeared to be chives.  .'
p2595
aS'the person diced herbs.  .'
p2596
aS'the person diced chives.  .'
p2597
aS'the person washed and sliced green herbs.  .'
p2598
aS'the person chops up leaves from a plant.  .'
p2599
aS'the person in a kitchen chopped up some herbs using a knife and chopping board.  .'
p2600
aS'the person pulled a handful of chives and then finely chopped them.  .'
p2601
aS'the person chopped up herbs on a cutting table.  .'
p2602
aS'the person chopped some chives.  .'
p2603
aS'the person cleaned and diced some herbs.  .'
p2604
aS'the person chopped some herbs.  .'
p2605
aS'the person cut and mashed a avocado.  .'
p2606
aS'the person peeled, seasoned and mashed an avocado.  .'
p2607
aS'the person came into the kitchen and made guacamole using an avocado and spices.  .'
p2608
aS'the person walked into the kitchen and mashed an avocado with spices.  .'
p2609
aS'the person mashed and seasoned an avocado.  .'
p2610
aS'the person reduces an avocado into a smooth pulp using a grater.  .'
p2611
aS'the person made guacamole with an avocado.  .'
p2612
aS'the person peeled and sliced an avocado before grating and mashing it to a paste.  .'
p2613
aS'the person made guacamole.  .'
p2614
aS'the person rinsed, cleaned, and sliced an avocado before seasoning it, grating it, and mashing it with a fork.  .'
p2615
aS'the person peeled and mashed the avocado.  .'
p2616
aS'the person peeled and mashed an avocado.  .'
p2617
aS'the person prepared guacamole with an avocado, salt and pepper.  .'
p2618
aS'the person made guacamole.  .'
p2619
aS'the person prepared an avocado by slicing and grading it.  .'
p2620
aS'how to peel and mash an avocado (the long way).  .'
p2621
aS'the person entered the kitchen and mashed an avocado.  .'
p2622
aS'the person peeled, sliced, grated, and mashed an avocado into a paste mixture.  .'
p2623
aS'the person walked into the kitchen and mashed an avocado.  .'
p2624
aS'the person prepared a plate of mashed avocado.  .'
p2625
aS'the person peeled and sliced a carrot.  .'
p2626
aS'the person rinsed and peeled a carrot.  .'
p2627
aS'the person chopped a carrot and put the pieces into a bowl.  .'
p2628
aS'the person peeled and chopped a carrot.  .'
p2629
aS'the person peeled and sliced a carrot.  .'
p2630
aS'the person peeled and cut a carrot and put it into a bowl.  .'
p2631
aS'the person peeled and sliced a carrot.  .'
p2632
aS'the person peeled and cut a carrot.  .'
p2633
aS'the person peeled and cut up one carrot from a bunch of carrots.  .'
p2634
aS'the person washed, peeled and sliced a carrot.  .'
p2635
aS'the person peeled and diced a carrot.  .'
p2636
aS'the person chopped a carrot.  .'
p2637
aS'the person walked into the kitchen and peeled and cut a carrot.  .'
p2638
aS'the person prepared a small bowl of diced carrot.  .'
p2639
aS'the person peeled and chopped a carrot.  .'
p2640
aS'the person took carrot, peeled and sliced it.  .'
p2641
aS'the person entered the kitchen, peeled a carrot and cut it into chunks.  .'
p2642
aS'the person peeled a carrot.  .'
p2643
aS'the person peeled and chopped a carrot.  .'
p2644
aS'the person entered the kitchen and peeled and chopped a carrot.  .'
p2645
aS'the person chopped a carrot on a cutting board in a kitchen.  .'
p2646
aS'the person peeled and diced a carrot.  .'
p2647
aS'the person entered the kitchen and chopped a carrot.  .'
p2648
aS'the person rinsed, peeled, and chopped a carrot.  .'
p2649
aS'the person walks into a kitchen and peels and cuts a carrot into many pieces.  .'
p2650
aS'the person prepared carrot by washing it, cutting off the ends, peeling the skin and cutting it in to small pieces horizontally.  .'
p2651
aS'the person cut a carrot into small pieces.  .'
p2652
aS'the person peeled and cut a carrot into small pieces.  .'
p2653
aS'the person rinsed, peeled, and cut a carrot into small pieces.  .'
p2654
aS'the person peeled and chopped the carrot.  .'
p2655
aS'the person peeled and sliced a carrot.  .'
p2656
aS'the person came into the kitchen, cleaned a carrot and cut it up.  .'
p2657
aS'the person peeled and cut a carrot.  .'
p2658
aS'the person peeled and chopped a carrot.  .'
p2659
aS'the person peeled and sliced a carrot on a cutting board.  .'
p2660
aS'the person peeled and diced a carrot.  .'
p2661
aS'the person entered the kitchen and diced a carrot.  .'
p2662
aS'the person peeled and sliced a carrot.  .'
p2663
aS'the person peeled and cut a carrot.  .'
p2664
aS'the person peeled and cut a carrot into discs.  .'
p2665
aS'the person sliced two fresh carrots.  .'
p2666
aS'the person peeled and sliced two carrots.  .'
p2667
aS'the person peeled and chopped two carrots.  .'
p2668
aS'the person collected all of the necessary materials, cut the ends off and peeled two carrots, and then put them back onto their original plate.  .'
p2669
aS'the person prepared a place of sliced carrots.  .'
p2670
aS'the person peels and chops carrots before setting them onto a plate.  .'
p2671
aS'the person plated some slices of peeled carrot.  .'
p2672
aS'the person entered the kitchen and sliced two carrots.  .'
p2673
aS'the person prepared and chopped two carrots into small pieces.  .'
p2674
aS'the person peeled and sliced carrots.  .'
p2675
aS'the person entered a kitchen and grabbed two carrots from the fridge, which he chopped using a knife before placing the chopped carrots on a plate.  .'
p2676
aS'the person chopped two carrots.  .'
p2677
aS'the person peeled and sliced two carrots.  .'
p2678
aS'the person cleaned and sliced a carrot.  .'
p2679
aS'the person sliced two carrots into small pieces.  .'
p2680
aS'the person peeled and sliced two carrots.  .'
p2681
aS'the person entered the kitchen and chopped some carrots.  .'
p2682
aS'the person peeled a carrot, cut it into pieces and put the pieces on a plate.  .'
p2683
aS'the person peeled and diced carrots.  .'
p2684
aS'the person peeled, then sliced a mango.  .'
p2685
aS'the person cut and peeled a vegetable and placed the pieces on a plate.  .'
p2686
aS'the person entered the kitchen and sliced a fruit.  .'
p2687
aS'the person peeled an mango.  .'
p2688
aS'the person peeled and cut a mango.  .'
p2689
aS'the person cut up a mango.  .'
p2690
aS'the person peeled and sliced a dark green and purple fruit.  .'
p2691
aS'the person came into the kitchen and filled up a bowl with mango stripes.  .'
p2692
aS'the person peeled and sliced a fruit.  .'
p2693
aS'the person in a kitchen peeled and cut up a mango into strips.  .'
p2694
aS'the person walked into the kitchen and sliced an mango into french fry type pieces.  .'
p2695
aS'the video is about cutting up a mango into long, thin pieces.  .'
p2696
aS'the person entered the kitchen a peeled and cut a mango into pieces.  .'
p2697
aS'the person prepared a mango.  .'
p2698
aS'the person peeled, sliced and plated a papaya in a kitchen.  .'
p2699
aS'the person sliced a mango.  .'
p2700
aS'the person peeled and cut an mango into small slices.  .'
p2701
aS'the person sliced a mango and put the slices on a plate.  .'
p2702
aS'the video shows how to cut a pineapple into small, thin pieces.  .'
p2703
aS'the person diced a pineapple.  .'
p2704
aS'the person peeled and diced a pineapple.  .'
p2705
aS'the person sliced and diced a pineapple.  .'
p2706
aS'the person prepared a plate of sliced pineapple.  .'
p2707
aS'the person cut a pineapple into small chunks.  .'
p2708
aS'the person peeled and cut up a pineapple.  .'
p2709
aS'the person peeled and cut a pineapple.  .'
p2710
aS'the person cut up a pineapple.  .'
p2711
aS'the person halved, and then quartered, a pineapple, before he skinned it and sliced it up.  .'
p2712
aS'the person entered the kitchen, got out his implements, then proceeded to prepare and slice up a whole pineapple into small segments.  .'
p2713
aS'the person entered the kitchen and sliced a pineapple.  .'
p2714
aS'the person sliced a pineapple.  .'
p2715
aS'the person prepared a pineapple.  .'
p2716
aS'a whole pineapple was skinned, sliced, and plated.  .'
p2717
aS'the person cut the pineapple into small small pieces.  .'
p2718
aS'the person trimmed and sliced up a pineapple.  .'
p2719
aS'the person entered the kitchen, got a pineapple and cut it into small pieces.  .'
p2720
aS'the person cut a pineapple into chunks.  .'
p2721
aS'the person he cut a pineapple into chunks.  .'
p2722
aS'the person peeled and finely chopped two cloves of garlic.  .'
p2723
aS'the person peeled, smashed, and diced a clove of garlic.  .'
p2724
aS'the person diced garlic.  .'
p2725
aS'the person entered the kitchen and chopped garlic on a cutting board.  .'
p2726
aS'the person diced two cloves of garlic.  .'
p2727
aS'the person demonstrated the technique for mincing garlic.  .'
p2728
aS'the person chopped up two cloves of garlic in a kitchen.  .'
p2729
aS'the video shows how to chop garlic very finely.  .'
p2730
aS'the person chopped some garlic.  .'
p2731
aS'the person chopped up two cloves of garlic.  .'
p2732
aS'the person peeled and diced garlic cloves.  .'
p2733
aS'the person diced up two cloves of garlic.  .'
p2734
aS'the person prepared and chopped garlic.  .'
p2735
aS'the person properly diced up two cloves of garlic.  .'
p2736
aS'the person diced a garlic clove.  .'
p2737
aS'the person peeled and chopped garlic.  .'
p2738
aS'the person had finely chopped two garlic cloves after peeling them.  .'
p2739
aS'the person chopped garlic into very small pieces.  .'
p2740
aS'the person diced garlic into small pieces.  .'
p2741
aS'the person entered the kitchen and chopped some garlic cloves.  .'
p2742
aS'the person smashed, peeled, and minced a few cloves of garlic.  .'
p2743
aS'the person plated the pomegranate after he prepared it.  .'
p2744
aS'the person cut and deseeded a pomegranate.  .'
p2745
aS'the person cut a pomegranate into sections and picked the seeds from those sections, putting them into a bowl.  .'
p2746
aS'the person removed the seeds of a pomegranate and put them on a plate.  .'
p2747
aS'the person prepared a pomegranate.  .'
p2748
aS'the person cut the pomegranate and removed the arils, moved the arils into plate.  .'
p2749
aS'the person prepared a pomegranate.  .'
p2750
aS'the person sectioned a pomegranate and scraped out the seeds and pulp for serving.  .'
p2751
aS'the person came and took a pomegranate and removed nut from it into a bowl.  .'
p2752
aS'the person prepared pomegranate seeds.  .'
p2753
aS'the person took forever to cut and deseed a pomegranate.  .'
p2754
aS'the person went into the kitchen and extracted the seeds of a pomegranate.  .'
p2755
aS'the person removed seeds from a pomegranate.  .'
p2756
aS'a pomegranate fruit was sliced and juiced and prepared for a meal.  .'
p2757
aS'the person removed the arils from a pomegranate.  .'
p2758
aS'the person entered the kitchen, cut up some fruit, and cleaned up after herself.  .'
p2759
aS'the person entered the kitchen and took out a pomegranate, a bowl, a plate, a chopping board and two knives and proceeded to cut and de-seed the pomegranate.  .'
p2760
aS'the person prepared a pomegranate and put it on a plate.  .'
p2761
aS'the person entered the kitchen and took the seeds out of a pomegranate.  .'
p2762
aS'the person deseeds a pomegranate in the kitchen.  .'
p2763
aS'the person cut up some herbs.  .'
p2764
aS'the person prepared some herbs.  .'
p2765
aS'the person finely chopped fresh herbs.  .'
p2766
aS'the person washed, cut, and prepared herbs on a cutting board.  .'
p2767
aS'the person prepared a bowl of chopped herbs.  .'
p2768
aS'the person diced herbs on a cutting board and later washed it afterwards.  .'
p2769
aS'the person chopped three types of herbs and placed them into a bowl.  .'
p2770
aS'the person prepared the herbs.  .'
p2771
aS'the person prepared diced herbs and put them in a bowl.  .'
p2772
aS'the person entered a kitchen and retrieved three different herbs, which he selected portions from and chopped finely and then placed the chopped herbs into a metal bowl.  .'
p2773
aS'the person diced herbs.  .'
p2774
aS'the person cleaned and chopped three kinds of herbs.  .'
p2775
aS'the person chopped some herbs.  .'
p2776
aS'the person cleaned and chopped herbs.  .'
p2777
aS'the person prepared herbs.  .'
p2778
aS'the person sliced the stems off the herbs and chopped them into small pieces.  .'
p2779
aS'the person entered the kitchen and chopped some herbs.  .'
p2780
aS'the person removed herbs from plants and prepared them for use.  .'
p2781
aS'the person walked in the kitchen to cut up herbs.  .'
p2782
aS'the person walked into the kitchen and chopped herbs.  .'
p2783
aS'the person entered the kitchen and diced an onion.  .'
p2784
aS'the person diced an onion.  .'
p2785
aS'the person chops up onions.  .'
p2786
aS'the person entered the kitchen and diced an onion.  .'
p2787
aS'the person poured lemon juice on the onion pieces.  .'
p2788
aS'the person peeled and chopped an onion.  .'
p2789
aS'the person diced an onion and put lemon juice on it.  .'
p2790
aS'the person peeled and diced an onion.  .'
p2791
aS'the person prepared, diced, and added lemon juice to an onion.  .'
p2792
aS'the person chopped an onion into fine pieces.  .'
p2793
aS'the person diced an onion.  .'
p2794
aS'the person chopped an onion and added lemon juice to it.  .'
p2795
aS'the person diced up an onion and added lemon juice to it.  .'
p2796
aS'a cook diced an onion and sprayed the onion with lemon juice.  .'
p2797
aS'the person finely chopped the onion and sprinkled some salt over it.  .'
p2798
aS'the person chopped the onion and sprinkled salt to it.  .'
p2799
aS'the person chopped an onion, then drizzled lemon juice over it,.  .'
p2800
aS'the person diced up and onion.  .'
p2801
aS'the person diced an onion and added lemon juice.  .'
p2802
aS'the person chopped an onion and squeezed lemon juice onto it.  .'
p2803
aS'the person separated an egg into two bowls.  .'
p2804
aS'the person put the egg yolk in one bowl and the egg white in another.  .'
p2805
aS'the person separated an egg.  .'
p2806
aS'the person went into the kitchen and separated the white and yellow part of the egg.  .'
p2807
aS'the person poured egg whites into one bowl, and put egg yolk in another bowl.  .'
p2808
aS'the person separated the white of the egg from the yolk of the egg.  .'
p2809
aS'the person entered the kitchen and separated an egg between two small bowls.  .'
p2810
aS'the person separated the yolk and white of an egg onto two bowls.  .'
p2811
aS'the person placed a solid egg yolk on a glass plate.  .'
p2812
aS'the person went into the kitchen and prepared two white saucers, an egg and a teaspoon which he used to separate the egg yolk from the egg white.  .'
p2813
aS'the person separated an egg into two bowls.  .'
p2814
aS'the person separated an egg by making a small hole in the shell that only the white could get through.  .'
p2815
aS'the person separated an egg white from the yolk.  .'
p2816
aS'the person poured out the white of an egg and the yolk onto separate small dishes each.  .'
p2817
aS'the person entered a kitchen where he separated the contents of an egg into two bowls.  .'
p2818
aS'the person prepared a bowl of egg yolk and egg whites.  .'
p2819
aS'the person separated an egg and egg white into separate bowls.  .'
p2820
aS'the person broke an egg and poured its contents in to two bowls, yellow part in one and the white part in another.  .'
p2821
aS'the person separated egg white from yoke using a whole in the top of the egg.  .'
p2822
aS'the person separated egg white from yolk into two small bowls with a spoon.  .'
p2823
aS'the person juiced a lime.  .'
p2824
aS'the person juiced a lime on a citrus juicer.  .'
p2825
aS'the person cut and juiced a lime.  .'
p2826
aS'the person sliced a lime and juiced it by hand.  .'
p2827
aS'the person juiced a lime.  .'
p2828
aS'the person juiced a lime.  .'
p2829
aS'the person used a white juicer to make lime juice.  .'
p2830
aS'the person sliced a lime in half, then juiced it.  .'
p2831
aS'the person squeezed the juice out of a lime.  .'
p2832
aS'the person used a juice squeezer to extract the juice from a lime.  .'
p2833
aS'the person juiced the lime by hand with a juicer.  .'
p2834
aS'the person juiced a lime.  .'
p2835
aS'the person juiced a lime.  .'
p2836
aS'the person used a hand juicer to extract the juice from a lime.  .'
p2837
aS'the person squeezed a lime.  .'
p2838
aS'the person juiced a lime.  .'
p2839
aS'the person juiced a lime.  .'
p2840
aS'the person made lime juice.  .'
p2841
aS'the person came into the kitchen and juiced a lime.  .'
p2842
aS'the person entered the kitchen and juiced a lime.  .'
p2843
aS'the person brewed a cup of tea.  .'
p2844
aS'the person prepared tea with sugar and poured it into a cup.  .'
p2845
aS'the person prepared a cup of tea in the kitchen.  .'
p2846
aS'the person made tea.  .'
p2847
aS'the person prepared a cup of tea with sugar.  .'
p2848
aS'the person prepared tea in a kitchen.  .'
p2849
aS'the person entered the kitchen and brewed some tea.  .'
p2850
aS'the person made tea using an electric kettle.  .'
p2851
aS'the person walked into the kitchen and made a pot of loose tea.  .'
p2852
aS'the person made tea.  .'
p2853
aS'the person made some hot tea and suger.  .'
p2854
aS'the person demonstrated how to brew tea.  .'
p2855
aS'the person brewed some tea, then sweetened it and put it in a teacup.  .'
p2856
aS'the person brewed some tea.  .'
p2857
aS'the person prepared a cup of tea.  .'
p2858
aS'the person prepared a pot of tea from loose tea leaves.  .'
p2859
aS'the person entered the kitchen and brewed a cup of tea.  .'
p2860
aS'the person brewed a cup of tea.  .'
p2861
aS'hot tea was made.  .'
p2862
aS'the person made tea.  .'
p2863
a.